ccopy_reg
_reconstructor
p0
(capriori
Rules
p1
c__builtin__
object
p2
Ntp3
Rp4
(dp5
S'rules'
p6
(lp7
(c__builtin__
frozenset
p8
((lp9
S'400040'
p10
atp11
Rp12
g8
((lp13
S'400546'
p14
atp15
Rp16
F1.0
tp17
a(g8
((lp18
S'412248'
p19
atp20
Rp21
g8
((lp22
g14
atp23
Rp24
F0.9811320754716981
tp25
a(g8
((lp26
g19
atp27
Rp28
g8
((lp29
g10
atp30
Rp31
F0.9811320754716981
tp32
a(g8
((lp33
g10
atp34
Rp35
g8
((lp36
g19
atp37
Rp38
F1.0
tp39
a(g8
((lp40
S'300041'
p41
atp42
Rp43
g8
((lp44
S'412251'
p45
atp46
Rp47
F0.9811320754716981
tp48
a(g8
((lp49
g45
atp50
Rp51
g8
((lp52
g41
atp53
Rp54
F0.9811320754716981
tp55
a(g8
((lp56
g45
atp57
Rp58
g8
((lp59
g14
atp60
Rp61
F0.9811320754716981
tp62
a(g8
((lp63
g41
atp64
Rp65
g8
((lp66
g14
atp67
Rp68
F0.9811320754716981
tp69
a(g8
((lp70
S'412322'
p71
atp72
Rp73
g8
((lp74
g41
atp75
Rp76
F1.0
tp77
a(g8
((lp78
g41
atp79
Rp80
g8
((lp81
g71
atp82
Rp83
F0.9811320754716981
tp84
a(g8
((lp85
S'412494'
p86
atp87
Rp88
g8
((lp89
g14
atp90
Rp91
F0.9629629629629629
tp92
a(g8
((lp93
g19
atp94
Rp95
g8
((lp96
S'400325'
p97
atp98
Rp99
F0.9811320754716981
tp100
a(g8
((lp101
g97
atp102
Rp103
g8
((lp104
g19
atp105
Rp106
F0.9811320754716981
tp107
a(g8
((lp108
g19
atp109
Rp110
g8
((lp111
g86
atp112
Rp113
F0.9811320754716981
tp114
a(g8
((lp115
g86
atp116
Rp117
g8
((lp118
g19
atp119
Rp120
F0.9629629629629629
tp121
a(g8
((lp122
g97
atp123
Rp124
g8
((lp125
g14
atp126
Rp127
F0.9811320754716981
tp128
a(g8
((lp129
g19
atp130
Rp131
g8
((lp132
g14
ag10
atp133
Rp134
F0.9811320754716981
tp135
a(g8
((lp136
g10
atp137
Rp138
g8
((lp139
g14
ag19
atp140
Rp141
F1.0
tp142
asS'support_data'
p143
(dp144
g8
((lp145
g41
ag97
atp146
Rp147
F0.796875
sg8
((lp148
g45
ag71
atp149
Rp150
F0.796875
sg8
((lp151
S'300002'
p152
aS'300023'
p153
atp154
Rp155
F0.765625
sg8
((lp156
g14
ag97
atp157
Rp158
F0.8125
sg8
((lp159
S'300076'
p160
atp161
Rp162
F0.3125
sg8
((lp163
g45
atp164
Rp165
F0.828125
sg8
((lp166
S'300027'
p167
atp168
Rp169
F0.796875
sg8
((lp170
g71
ag10
atp171
Rp172
F0.765625
sg8
((lp173
g45
aS'300089'
p174
atp175
Rp176
F0.75
sg8
((lp177
S'400034'
p178
atp179
Rp180
F0.765625
sg8
((lp181
g14
aS'400418'
p182
atp183
Rp184
F0.765625
sg8
((lp185
g14
ag174
atp186
Rp187
F0.78125
sg8
((lp188
g71
atp189
Rp190
F0.8125
sg8
((lp191
S'300066'
p192
atp193
Rp194
F0.3125
sg8
((lp195
g153
ag19
atp196
Rp197
F0.765625
sg8
((lp198
S'412586'
p199
atp200
Rp201
F0.265625
sg8
((lp202
S'300038'
p203
atp204
Rp205
F0.328125
sg8
((lp206
g152
ag19
atp207
Rp208
F0.796875
sg8
((lp209
S'412194'
p210
atp211
Rp212
F0.34375
sg8
((lp213
g14
ag10
ag19
atp214
Rp215
F0.8125
sg8
((lp216
S'300060'
p217
atp218
Rp219
F0.046875
sg8
((lp220
g152
ag10
atp221
Rp222
F0.78125
sg8
((lp223
g97
ag19
atp224
Rp225
F0.8125
sg8
((lp226
S'300072'
p227
ag153
atp228
Rp229
F0.75
sg8
((lp230
S'412246'
p231
atp232
Rp233
F0.390625
sg8
((lp234
g227
ag174
atp235
Rp236
F0.734375
sg8
((lp237
S'412320'
p238
atp239
Rp240
F0.796875
sg8
((lp241
g182
atp242
Rp243
F0.8125
sg8
((lp244
g41
ag10
atp245
Rp246
F0.78125
sg8
((lp247
S'300078'
p248
atp249
Rp250
F0.390625
sg8
((lp251
g174
ag97
atp252
Rp253
F0.75
sg8
((lp254
g14
ag10
atp255
Rp256
F0.8125
sg8
((lp257
g227
ag86
atp258
Rp259
F0.78125
sg8
((lp260
g41
ag14
atp261
Rp262
F0.8125
sg8
((lp263
S'300075'
p264
atp265
Rp266
F0.640625
sg8
((lp267
g152
atp268
Rp269
F0.8125
sg8
((lp270
g227
atp271
Rp272
F0.8125
sg8
((lp273
g45
ag153
atp274
Rp275
F0.734375
sg8
((lp276
g10
ag174
atp277
Rp278
F0.734375
sg8
((lp279
S'412325'
p280
atp281
Rp282
F0.359375
sg8
((lp283
S'412218'
p284
atp285
Rp286
F0.765625
sg8
((lp287
S'412326'
p288
atp289
Rp290
F0.40625
sg8
((lp291
S'300048'
p292
atp293
Rp294
F0.765625
sg8
((lp295
S'400413'
p296
atp297
Rp298
F0.3125
sg8
((lp299
S'300047'
p300
atp301
Rp302
F0.71875
sg8
((lp303
S'400432'
p304
atp305
Rp306
F0.765625
sg8
((lp307
g14
ag152
atp308
Rp309
F0.78125
sg8
((lp310
S'412490'
p311
atp312
Rp313
F0.359375
sg8
((lp314
g45
ag86
atp315
Rp316
F0.765625
sg8
((lp317
S'300051'
p318
atp319
Rp320
F0.34375
sg8
((lp321
S'400013'
p322
atp323
Rp324
F0.34375
sg8
((lp325
g227
ag19
atp326
Rp327
F0.78125
sg8
((lp328
g10
atp329
Rp330
F0.8125
sg8
((lp331
g45
ag14
atp332
Rp333
F0.8125
sg8
((lp334
g86
ag10
atp335
Rp336
F0.796875
sg8
((lp337
g227
ag182
atp338
Rp339
F0.75
sg8
((lp340
g45
ag19
atp341
Rp342
F0.78125
sg8
((lp343
S'300084'
p344
atp345
Rp346
F0.3125
sg8
((lp347
S'412324'
p348
atp349
Rp350
F0.421875
sg8
((lp351
S'300081'
p352
atp353
Rp354
F0.328125
sg8
((lp355
g41
ag153
atp356
Rp357
F0.734375
sg8
((lp358
g152
ag71
atp359
Rp360
F0.734375
sg8
((lp361
S'412281'
p362
atp363
Rp364
F0.359375
sg8
((lp365
g153
ag97
atp366
Rp367
F0.765625
sg8
((lp368
S'412582'
p369
atp370
Rp371
F0.375
sg8
((lp372
S'412390'
p373
atp374
Rp375
F0.359375
sg8
((lp376
S'300100'
p377
atp378
Rp379
F0.359375
sg8
((lp380
g182
ag153
atp381
Rp382
F0.734375
sg8
((lp383
g41
ag71
atp384
Rp385
F0.8125
sg8
((lp386
g41
ag182
atp387
Rp388
F0.78125
sg8
((lp389
g182
ag174
atp390
Rp391
F0.765625
sg8
((lp392
S'300083'
p393
atp394
Rp395
F0.765625
sg8
((lp396
S'300043'
p397
atp398
Rp399
F0.34375
sg8
((lp400
S'400408'
p401
atp402
Rp403
F0.796875
sg8
((lp404
g45
ag41
atp405
Rp406
F0.8125
sg8
((lp407
S'400357'
p408
atp409
Rp410
F0.28125
sg8
((lp411
g182
ag97
atp412
Rp413
F0.765625
sg8
((lp414
S'412471'
p415
atp416
Rp417
F0.78125
sg8
((lp418
g86
atp419
Rp420
F0.84375
sg8
((lp421
S'412330'
p422
atp423
Rp424
F0.421875
sg8
((lp425
g71
ag174
atp426
Rp427
F0.75
sg8
((lp428
S'300055'
p429
atp430
Rp431
F0.78125
sg8
((lp432
g97
ag14
ag10
atp433
Rp434
F0.796875
sg8
((lp435
S'300058'
p436
atp437
Rp438
F0.3125
sg8
((lp439
g227
ag152
atp440
Rp441
F0.75
sg8
((lp442
S'300018'
p443
atp444
Rp445
F0.34375
sg8
((lp446
g14
atp447
Rp448
F0.859375
sg8
((lp449
S'400272'
p450
atp451
Rp452
F0.328125
sg8
((lp453
g152
ag97
atp454
Rp455
F0.78125
sg8
((lp456
S'412244'
p457
atp458
Rp459
F0.328125
sg8
((lp460
S'400064'
p461
atp462
Rp463
F0.359375
sg8
((lp464
g152
ag182
atp465
Rp466
F0.75
sg8
((lp467
S'300088'
p468
atp469
Rp470
F0.765625
sg8
((lp471
g227
ag14
atp472
Rp473
F0.796875
sg8
((lp474
S'412378'
p475
atp476
Rp477
F0.359375
sg8
((lp478
S'400050'
p479
atp480
Rp481
F0.296875
sg8
((lp482
S'412542'
p483
atp484
Rp485
F0.359375
sg8
((lp486
g86
ag14
atp487
Rp488
F0.8125
sg8
((lp489
g14
ag71
atp490
Rp491
F0.796875
sg8
((lp492
g227
ag10
atp493
Rp494
F0.78125
sg8
((lp495
S'400194'
p496
atp497
Rp498
F0.796875
sg8
((lp499
S'412321'
p500
atp501
Rp502
F0.375
sg8
((lp503
S'412200'
p504
atp505
Rp506
F0.328125
sg8
((lp507
S'300087'
p508
atp509
Rp510
F0.34375
sg8
((lp511
S'412205'
p512
atp513
Rp514
F0.4375
sg8
((lp515
g182
ag71
atp516
Rp517
F0.78125
sg8
((lp518
S'412243'
p519
atp520
Rp521
F0.4375
sg8
((lp522
g14
ag153
atp523
Rp524
F0.78125
sg8
((lp525
g71
ag97
atp526
Rp527
F0.78125
sg8
((lp528
S'400222'
p529
atp530
Rp531
F0.671875
sg8
((lp532
S'300063'
p533
atp534
Rp535
F0.328125
sg8
((lp536
g45
ag10
atp537
Rp538
F0.78125
sg8
((lp539
S'300025'
p540
atp541
Rp542
F0.625
sg8
((lp543
S'412495'
p544
atp545
Rp546
F0.6875
sg8
((lp547
g71
ag153
atp548
Rp549
F0.71875
sg8
((lp550
g19
atp551
Rp552
F0.828125
sg8
((lp553
S'400576'
p554
atp555
Rp556
F0.75
sg8
((lp557
g153
ag174
atp558
Rp559
F0.78125
sg8
((lp560
g86
ag174
atp561
Rp562
F0.765625
sg8
((lp563
g10
ag19
atp564
Rp565
F0.8125
sg8
((lp566
g45
ag152
atp567
Rp568
F0.75
sg8
((lp569
g227
ag97
atp570
Rp571
F0.78125
sg8
((lp572
S'412323'
p573
atp574
Rp575
F0.359375
sg8
((lp576
S'400054'
p577
atp578
Rp579
F0.78125
sg8
((lp580
g227
ag41
atp581
Rp582
F0.78125
sg8
((lp583
g41
ag152
atp584
Rp585
F0.75
sg8
((lp586
g86
ag153
atp587
Rp588
F0.796875
sg8
((lp589
g41
ag86
atp590
Rp591
F0.765625
sg8
((lp592
S'412492'
p593
atp594
Rp595
F0.71875
sg8
((lp596
g86
ag182
atp597
Rp598
F0.75
sg8
((lp599
S'412247'
p600
atp601
Rp602
F0.328125
sg8
((lp603
S'300073'
p604
atp605
Rp606
F0.34375
sg8
((lp607
S'400284'
p608
atp609
Rp610
F0.78125
sg8
((lp611
g152
ag174
atp612
Rp613
F0.75
sg8
((lp614
g86
ag97
atp615
Rp616
F0.796875
sg8
((lp617
S'412493'
p618
atp619
Rp620
F0.75
sg8
((lp621
g45
ag97
atp622
Rp623
F0.78125
sg8
((lp624
g182
ag19
atp625
Rp626
F0.75
sg8
((lp627
g182
ag10
atp628
Rp629
F0.734375
sg8
((lp630
g45
ag182
atp631
Rp632
F0.78125
sg8
((lp633
g227
ag71
atp634
Rp635
F0.765625
sg8
((lp636
g41
ag174
atp637
Rp638
F0.75
sg8
((lp639
S'300082'
p640
atp641
Rp642
F0.34375
sg8
((lp643
S'412554'
p644
atp645
Rp646
F0.390625
sg8
((lp647
g10
ag97
atp648
Rp649
F0.796875
sg8
((lp650
g86
ag19
atp651
Rp652
F0.8125
sg8
((lp653
g45
ag41
ag14
atp654
Rp655
F0.796875
sg8
((lp656
S'412545'
p657
atp658
Rp659
F0.375
sg8
((lp660
S'402675'
p661
atp662
Rp663
F0.78125
sg8
((lp664
S'300093'
p665
atp666
Rp667
F0.34375
sg8
((lp668
g10
ag153
atp669
Rp670
F0.75
sg8
((lp671
S'400134'
p672
atp673
Rp674
F0.765625
sg8
((lp675
S'300005'
p676
atp677
Rp678
F0.359375
sg8
((lp679
g153
atp680
Rp681
F0.8125
sg8
((lp682
S'412491'
p683
atp684
Rp685
F0.71875
sg8
((lp686
g71
ag19
atp687
Rp688
F0.765625
sg8
((lp689
S'412507'
p690
atp691
Rp692
F0.34375
sg8
((lp693
S'412496'
p694
atp695
Rp696
F0.765625
sg8
((lp697
g174
atp698
Rp699
F0.828125
sg8
((lp700
g86
ag71
atp701
Rp702
F0.75
sg8
((lp703
g174
ag19
atp704
Rp705
F0.75
sg8
((lp706
S'412223'
p707
atp708
Rp709
F0.34375
sg8
((lp710
S'300011'
p711
atp712
Rp713
F0.34375
sg8
((lp714
S'300052'
p715
atp716
Rp717
F0.765625
sg8
((lp718
S'300065'
p719
atp720
Rp721
F0.34375
sg8
((lp722
g97
atp723
Rp724
F0.828125
sg8
((lp725
S'300080'
p726
atp727
Rp728
F0.4375
sg8
((lp729
g227
ag45
atp730
Rp731
F0.796875
sg8
((lp732
g14
ag19
atp733
Rp734
F0.8125
sg8
((lp735
S'300064'
p736
atp737
Rp738
F0.109375
sg8
((lp739
g41
atp740
Rp741
F0.828125
sg8
((lp742
S'300071'
p743
atp744
Rp745
F0.765625
sg8
((lp746
g41
ag19
atp747
Rp748
F0.78125
sg8
((lp749
g14
ag97
ag19
atp750
Rp751
F0.796875
sg8
((lp752
S'300021'
p753
atp754
Rp755
F0.765625
sg8
((lp756
g86
ag152
atp757
Rp758
F0.796875
sg8
((lp759
S'412391'
p760
atp761
Rp762
F0.546875
sg8
((lp763
S'412556'
p764
atp765
Rp766
F0.78125
sg8
((lp767
S'400412'
p768
atp769
Rp770
F0.375
sg8
((lp771
S'412242'
p772
atp773
Rp774
F0.359375
sg8
((lp775
S'300019'
p776
atp777
Rp778
F0.359375
sg8
((lp779
S'412573'
p780
atp781
Rp782
F0.71875
sg8
((lp783
S'300030'
p784
atp785
Rp786
F0.796875
sg8
((lp787
g86
ag14
ag19
atp788
Rp789
F0.796875
sg8
((lp790
g41
ag14
ag71
atp791
Rp792
F0.796875
ssS'congress_num'
p793
I113
sS'data'
p794
(lp795
(lp796
g152
ag618
ag45
ag10
ag577
ag753
ag661
ag554
ag153
ag19
ag167
ag784
ag780
ag41
ag672
ag300
ag292
ag715
ag284
ag86
ag429
ag496
ag238
ag694
ag544
ag743
ag227
ag593
ag97
ag71
ag393
ag683
ag415
ag468
ag174
ag14
ag401
ag182
ag304
aa(lp797
S'300002'
p798
aS'412493'
p799
aS'412251'
p800
ag178
aS'400040'
p801
aS'400054'
p802
aS'300021'
p803
aS'402675'
p804
aS'400576'
p805
aS'300023'
p806
ag540
aS'412248'
p807
aS'300027'
p808
aS'300030'
p809
aS'412573'
p810
aS'300041'
p811
ag764
aS'400134'
p812
aS'300047'
p813
aS'300048'
p814
aS'300052'
p815
aS'412218'
p816
aS'412494'
p817
aS'300055'
p818
aS'400194'
p819
aS'412320'
p820
aS'412496'
p821
ag529
aS'412495'
p822
aS'300071'
p823
aS'300072'
p824
aS'412492'
p825
aS'400325'
p826
aS'412322'
p827
aS'300083'
p828
aS'412491'
p829
aS'412471'
p830
aS'300088'
p831
aS'300089'
p832
aS'400546'
p833
aS'400408'
p834
aS'400418'
p835
aS'400432'
p836
aa(lp837
S'300002'
p838
aS'412493'
p839
aS'412251'
p840
aS'400034'
p841
aS'400040'
p842
aS'400054'
p843
aS'300021'
p844
aS'402675'
p845
aS'400576'
p846
aS'300023'
p847
aS'300025'
p848
aS'412248'
p849
aS'300027'
p850
aS'300030'
p851
aS'412573'
p852
aS'300041'
p853
aS'412556'
p854
aS'400134'
p855
aS'300047'
p856
aS'300048'
p857
aS'300052'
p858
aS'412218'
p859
aS'412494'
p860
aS'300055'
p861
aS'400194'
p862
aS'412320'
p863
aS'412496'
p864
aS'400222'
p865
aS'412495'
p866
aS'300071'
p867
ag519
aS'300072'
p868
ag608
ag264
aS'412492'
p869
aS'400325'
p870
aS'412322'
p871
aS'300083'
p872
aS'412491'
p873
aS'412471'
p874
aS'300088'
p875
aS'300089'
p876
aS'400546'
p877
aS'400408'
p878
aS'400418'
p879
aS'400432'
p880
aa(lp881
S'300002'
p882
aS'412493'
p883
ag322
aS'412251'
p884
ag676
ag288
ag422
ag311
aS'400034'
p885
aS'400040'
p886
ag711
ag479
ag443
ag461
ag776
ag231
aS'300023'
p887
aS'300025'
p888
ag373
aS'412248'
p889
aS'300027'
p890
ag512
ag203
aS'300041'
p891
ag397
aS'412556'
p892
ag475
ag707
aS'300048'
p893
ag348
ag318
ag362
ag644
ag504
aS'412494'
p894
aS'300055'
p895
aS'400194'
p896
aS'412320'
p897
ag436
ag369
ag217
ag657
aS'400222'
p898
ag772
ag736
ag719
ag192
ag760
aS'300071'
p899
aS'412243'
p900
aS'300072'
p901
ag450
ag280
ag604
aS'400284'
p902
aS'300075'
p903
ag210
ag160
ag248
aS'400325'
p904
ag726
ag352
ag640
aS'300083'
p905
ag344
ag690
ag508
ag573
ag665
ag457
aS'400546'
p906
ag768
ag296
ag500
ag483
ag600
aS'400432'
p907
ag377
aa(lp908
S'300002'
p909
aS'412493'
p910
aS'412251'
p911
aS'400034'
p912
aS'400040'
p913
aS'400054'
p914
aS'300021'
p915
aS'402675'
p916
aS'300023'
p917
aS'300025'
p918
aS'412248'
p919
aS'300027'
p920
aS'300030'
p921
aS'412573'
p922
aS'300041'
p923
aS'412556'
p924
aS'400134'
p925
aS'300048'
p926
aS'300052'
p927
aS'412218'
p928
aS'412494'
p929
aS'300055'
p930
aS'400194'
p931
aS'412320'
p932
aS'412496'
p933
aS'400222'
p934
aS'412391'
p935
aS'300071'
p936
aS'300072'
p937
aS'400284'
p938
aS'300075'
p939
aS'412492'
p940
aS'400325'
p941
aS'412322'
p942
aS'300083'
p943
aS'412491'
p944
aS'412471'
p945
aS'300088'
p946
aS'300089'
p947
aS'400546'
p948
aS'400408'
p949
aS'400418'
p950
aS'400432'
p951
aa(lp952
S'300002'
p953
aS'412493'
p954
aS'412251'
p955
aS'400034'
p956
aS'400040'
p957
aS'400054'
p958
aS'300021'
p959
aS'402675'
p960
aS'400576'
p961
aS'300023'
p962
aS'412248'
p963
aS'300027'
p964
aS'300030'
p965
aS'412573'
p966
aS'300041'
p967
aS'412556'
p968
aS'400134'
p969
aS'300047'
p970
aS'300048'
p971
aS'300052'
p972
aS'412218'
p973
aS'412494'
p974
aS'300055'
p975
aS'400194'
p976
aS'412320'
p977
aS'412496'
p978
aS'412495'
p979
aS'412391'
p980
aS'300071'
p981
aS'300072'
p982
aS'400284'
p983
aS'412492'
p984
aS'400325'
p985
aS'300080'
p986
aS'412322'
p987
aS'300083'
p988
aS'412491'
p989
aS'412471'
p990
aS'300088'
p991
aS'300089'
p992
aS'400546'
p993
aS'400408'
p994
aS'400418'
p995
aS'400432'
p996
aa(lp997
S'300002'
p998
aS'412493'
p999
aS'400013'
p1000
aS'412251'
p1001
aS'412326'
p1002
aS'412330'
p1003
aS'400034'
p1004
aS'400040'
p1005
aS'400054'
p1006
aS'300019'
p1007
aS'412246'
p1008
aS'300021'
p1009
aS'402675'
p1010
aS'400576'
p1011
aS'300023'
p1012
aS'300025'
p1013
aS'412390'
p1014
aS'412248'
p1015
aS'300027'
p1016
aS'300030'
p1017
aS'412573'
p1018
aS'412205'
p1019
aS'300041'
p1020
aS'412556'
p1021
aS'400134'
p1022
aS'412378'
p1023
aS'412223'
p1024
aS'300047'
p1025
aS'300048'
p1026
aS'412324'
p1027
aS'300052'
p1028
aS'412218'
p1029
aS'412494'
p1030
aS'300055'
p1031
aS'400194'
p1032
aS'412320'
p1033
aS'412496'
p1034
aS'412582'
p1035
aS'412545'
p1036
aS'400222'
p1037
aS'412242'
p1038
aS'412495'
p1039
aS'412391'
p1040
aS'300071'
p1041
aS'412243'
p1042
aS'300072'
p1043
aS'412325'
p1044
aS'400284'
p1045
aS'300075'
p1046
aS'300078'
p1047
aS'412492'
p1048
aS'400325'
p1049
aS'300080'
p1050
aS'412322'
p1051
aS'300083'
p1052
aS'300084'
p1053
aS'412491'
p1054
aS'300087'
p1055
aS'412471'
p1056
aS'300088'
p1057
aS'300089'
p1058
aS'400546'
p1059
aS'400408'
p1060
aS'400412'
p1061
aS'400418'
p1062
aS'412321'
p1063
aS'400432'
p1064
aS'300100'
p1065
aa(lp1066
S'300002'
p1067
aS'412493'
p1068
aS'400013'
p1069
aS'412251'
p1070
aS'300005'
p1071
aS'412326'
p1072
aS'412330'
p1073
aS'412490'
p1074
aS'400034'
p1075
aS'400040'
p1076
aS'300011'
p1077
aS'400050'
p1078
aS'400054'
p1079
aS'300018'
p1080
aS'400064'
p1081
aS'300019'
p1082
aS'412246'
p1083
aS'300021'
p1084
aS'402675'
p1085
aS'400576'
p1086
aS'300023'
p1087
aS'300025'
p1088
aS'412390'
p1089
aS'412248'
p1090
aS'300027'
p1091
ag199
aS'300030'
p1092
aS'412573'
p1093
aS'412205'
p1094
aS'300038'
p1095
aS'300041'
p1096
aS'300043'
p1097
aS'412556'
p1098
aS'400134'
p1099
aS'412378'
p1100
aS'412223'
p1101
aS'300047'
p1102
aS'300048'
p1103
aS'412324'
p1104
aS'300051'
p1105
aS'300052'
p1106
aS'412281'
p1107
aS'412554'
p1108
aS'412218'
p1109
aS'412200'
p1110
aS'412494'
p1111
aS'300055'
p1112
aS'400194'
p1113
aS'412320'
p1114
aS'300058'
p1115
aS'412496'
p1116
aS'412582'
p1117
aS'412545'
p1118
aS'400222'
p1119
aS'412242'
p1120
ag533
aS'300064'
p1121
aS'300065'
p1122
aS'412495'
p1123
aS'300066'
p1124
aS'412391'
p1125
aS'300071'
p1126
aS'412243'
p1127
aS'300072'
p1128
aS'400272'
p1129
aS'412325'
p1130
aS'300073'
p1131
aS'400284'
p1132
aS'300075'
p1133
aS'412194'
p1134
aS'300076'
p1135
aS'300078'
p1136
aS'412492'
p1137
aS'400325'
p1138
aS'300080'
p1139
aS'300081'
p1140
aS'300082'
p1141
aS'412322'
p1142
aS'300083'
p1143
aS'300084'
p1144
aS'412491'
p1145
ag408
aS'412507'
p1146
aS'300087'
p1147
aS'412471'
p1148
aS'300088'
p1149
aS'412323'
p1150
aS'300089'
p1151
aS'300093'
p1152
aS'412244'
p1153
aS'400546'
p1154
aS'400408'
p1155
aS'400412'
p1156
aS'400413'
p1157
aS'400418'
p1158
aS'412321'
p1159
aS'412542'
p1160
aS'412247'
p1161
aS'400432'
p1162
aS'300100'
p1163
aa(lp1164
S'300002'
p1165
aS'412493'
p1166
aS'412251'
p1167
aS'300005'
p1168
aS'412326'
p1169
aS'412330'
p1170
aS'400034'
p1171
aS'400040'
p1172
aS'400054'
p1173
aS'300019'
p1174
aS'412246'
p1175
aS'300021'
p1176
aS'402675'
p1177
aS'400576'
p1178
aS'300023'
p1179
aS'300025'
p1180
aS'412390'
p1181
aS'412248'
p1182
aS'300027'
p1183
aS'300030'
p1184
aS'412573'
p1185
aS'412205'
p1186
aS'300041'
p1187
aS'412556'
p1188
aS'400134'
p1189
aS'300047'
p1190
aS'300048'
p1191
aS'412324'
p1192
aS'300052'
p1193
aS'412554'
p1194
aS'412218'
p1195
aS'412494'
p1196
aS'300055'
p1197
aS'400194'
p1198
aS'412320'
p1199
aS'300058'
p1200
aS'412496'
p1201
aS'400222'
p1202
aS'300063'
p1203
aS'412495'
p1204
aS'412391'
p1205
aS'300071'
p1206
aS'412243'
p1207
aS'300072'
p1208
aS'400284'
p1209
aS'300075'
p1210
aS'300078'
p1211
aS'412492'
p1212
aS'400325'
p1213
aS'300080'
p1214
aS'412322'
p1215
aS'300083'
p1216
aS'412491'
p1217
aS'412471'
p1218
aS'300088'
p1219
aS'300089'
p1220
aS'412244'
p1221
aS'400546'
p1222
aS'400408'
p1223
aS'400418'
p1224
aS'412321'
p1225
aS'400432'
p1226
aa(lp1227
S'400013'
p1228
aS'300005'
p1229
aS'412326'
p1230
aS'412330'
p1231
aS'412490'
p1232
aS'300011'
p1233
aS'400050'
p1234
aS'300018'
p1235
aS'400064'
p1236
aS'300019'
p1237
aS'412246'
p1238
aS'412390'
p1239
aS'412586'
p1240
aS'412205'
p1241
aS'300038'
p1242
aS'300043'
p1243
aS'412378'
p1244
aS'412223'
p1245
aS'300051'
p1246
aS'412281'
p1247
aS'412554'
p1248
aS'412200'
p1249
aS'300058'
p1250
aS'412582'
p1251
aS'412545'
p1252
aS'300063'
p1253
aS'300065'
p1254
aS'300066'
p1255
aS'400272'
p1256
aS'412325'
p1257
aS'300073'
p1258
aS'412194'
p1259
aS'300076'
p1260
aS'300078'
p1261
aS'300080'
p1262
aS'300081'
p1263
aS'300082'
p1264
aS'300084'
p1265
aS'400357'
p1266
aS'412507'
p1267
aS'300087'
p1268
aS'412323'
p1269
aS'300093'
p1270
aS'412244'
p1271
aS'400412'
p1272
aS'400413'
p1273
aS'412542'
p1274
aS'412247'
p1275
aS'300100'
p1276
aa(lp1277
S'300002'
p1278
aS'412493'
p1279
aS'412251'
p1280
aS'400034'
p1281
aS'400040'
p1282
aS'400054'
p1283
aS'300021'
p1284
aS'402675'
p1285
aS'400576'
p1286
aS'300023'
p1287
aS'300025'
p1288
aS'412248'
p1289
aS'300027'
p1290
aS'300030'
p1291
aS'412573'
p1292
aS'300041'
p1293
aS'412556'
p1294
aS'400134'
p1295
aS'300047'
p1296
aS'300048'
p1297
aS'300052'
p1298
aS'412218'
p1299
aS'412494'
p1300
aS'300055'
p1301
aS'400194'
p1302
aS'412320'
p1303
aS'412496'
p1304
aS'400222'
p1305
aS'412495'
p1306
aS'300071'
p1307
aS'300072'
p1308
aS'400284'
p1309
aS'300075'
p1310
aS'412492'
p1311
aS'400325'
p1312
aS'412322'
p1313
aS'300083'
p1314
aS'412491'
p1315
aS'412471'
p1316
aS'300088'
p1317
aS'300089'
p1318
aS'400546'
p1319
aS'400408'
p1320
aS'400418'
p1321
aS'400432'
p1322
aa(lp1323
S'300002'
p1324
aS'412493'
p1325
aS'412251'
p1326
aS'300005'
p1327
aS'400034'
p1328
aS'400040'
p1329
aS'400054'
p1330
aS'300021'
p1331
aS'402675'
p1332
aS'400576'
p1333
aS'300023'
p1334
aS'412248'
p1335
aS'300027'
p1336
aS'300030'
p1337
aS'412573'
p1338
aS'412205'
p1339
aS'300041'
p1340
aS'300043'
p1341
aS'412556'
p1342
aS'400134'
p1343
aS'300047'
p1344
aS'300048'
p1345
aS'300051'
p1346
aS'300052'
p1347
aS'412218'
p1348
aS'412494'
p1349
aS'300055'
p1350
aS'400194'
p1351
aS'412320'
p1352
aS'412496'
p1353
aS'412495'
p1354
aS'412391'
p1355
aS'300071'
p1356
aS'300072'
p1357
aS'400284'
p1358
aS'300075'
p1359
aS'412492'
p1360
aS'400325'
p1361
aS'412322'
p1362
aS'300083'
p1363
aS'412491'
p1364
aS'412471'
p1365
aS'300088'
p1366
aS'300089'
p1367
aS'400546'
p1368
aS'400408'
p1369
aS'400418'
p1370
aS'400432'
p1371
aa(lp1372
S'412251'
p1373
aS'402675'
p1374
aS'400576'
p1375
aS'300023'
p1376
aS'300030'
p1377
aS'412573'
p1378
aS'300041'
p1379
aS'300048'
p1380
aS'300052'
p1381
aS'412218'
p1382
aS'300055'
p1383
aS'412496'
p1384
aS'412495'
p1385
aS'300072'
p1386
aS'400284'
p1387
aS'412492'
p1388
aS'400325'
p1389
aS'412322'
p1390
aS'300083'
p1391
aS'412491'
p1392
aS'412471'
p1393
aS'300088'
p1394
aS'300089'
p1395
aS'400546'
p1396
aS'400408'
p1397
aS'400418'
p1398
aa(lp1399
S'400013'
p1400
aS'412330'
p1401
aS'412490'
p1402
aS'300011'
p1403
aS'400050'
p1404
aS'300018'
p1405
aS'400064'
p1406
aS'300019'
p1407
aS'412246'
p1408
aS'412390'
p1409
aS'412586'
p1410
aS'412205'
p1411
aS'300038'
p1412
aS'300043'
p1413
aS'412378'
p1414
aS'412223'
p1415
aS'300051'
p1416
aS'412281'
p1417
aS'412554'
p1418
aS'412200'
p1419
aS'300058'
p1420
aS'412582'
p1421
aS'412545'
p1422
aS'412242'
p1423
aS'300063'
p1424
aS'300065'
p1425
aS'300066'
p1426
aS'412391'
p1427
aS'412243'
p1428
aS'400272'
p1429
aS'412325'
p1430
aS'300073'
p1431
aS'412194'
p1432
aS'300076'
p1433
aS'300078'
p1434
aS'300081'
p1435
aS'300082'
p1436
aS'300084'
p1437
aS'400357'
p1438
aS'412507'
p1439
aS'300087'
p1440
aS'412323'
p1441
aS'300093'
p1442
aS'412244'
p1443
aS'400412'
p1444
aS'400413'
p1445
aS'412321'
p1446
aS'412542'
p1447
aS'412247'
p1448
aS'300100'
p1449
aa(lp1450
S'400013'
p1451
aS'300005'
p1452
aS'412326'
p1453
aS'412330'
p1454
aS'412490'
p1455
aS'300011'
p1456
aS'400050'
p1457
aS'300018'
p1458
aS'400064'
p1459
aS'300019'
p1460
aS'412246'
p1461
aS'412390'
p1462
aS'412586'
p1463
aS'412205'
p1464
aS'300038'
p1465
aS'300043'
p1466
aS'412378'
p1467
aS'412223'
p1468
aS'412324'
p1469
aS'300051'
p1470
aS'412281'
p1471
aS'412554'
p1472
aS'412200'
p1473
aS'300058'
p1474
aS'412582'
p1475
aS'412545'
p1476
aS'412242'
p1477
aS'300063'
p1478
aS'300065'
p1479
aS'300066'
p1480
aS'412391'
p1481
aS'412243'
p1482
aS'400272'
p1483
aS'412325'
p1484
aS'300073'
p1485
aS'412194'
p1486
aS'300076'
p1487
aS'300078'
p1488
aS'300080'
p1489
aS'300081'
p1490
aS'300082'
p1491
aS'300084'
p1492
aS'400357'
p1493
aS'412507'
p1494
aS'300087'
p1495
aS'412323'
p1496
aS'300093'
p1497
aS'412244'
p1498
aS'400412'
p1499
aS'400413'
p1500
aS'412321'
p1501
aS'412542'
p1502
aS'412247'
p1503
aS'300100'
p1504
aa(lp1505
S'300002'
p1506
aS'412493'
p1507
aS'412251'
p1508
aS'300005'
p1509
aS'412330'
p1510
aS'400040'
p1511
aS'300011'
p1512
aS'400054'
p1513
aS'402675'
p1514
aS'400576'
p1515
aS'300025'
p1516
aS'412390'
p1517
aS'412248'
p1518
aS'300030'
p1519
aS'412573'
p1520
aS'412205'
p1521
aS'300041'
p1522
aS'412556'
p1523
aS'400134'
p1524
aS'300048'
p1525
aS'412324'
p1526
aS'412218'
p1527
aS'300055'
p1528
aS'412320'
p1529
aS'412496'
p1530
aS'300063'
p1531
aS'412495'
p1532
aS'300071'
p1533
aS'412243'
p1534
aS'412325'
p1535
aS'400284'
p1536
aS'300075'
p1537
aS'412492'
p1538
aS'400325'
p1539
aS'300080'
p1540
aS'412322'
p1541
aS'412471'
p1542
aS'300088'
p1543
aS'412323'
p1544
aS'300089'
p1545
aS'400546'
p1546
aS'400408'
p1547
aS'400413'
p1548
aS'400418'
p1549
aa(lp1550
S'300002'
p1551
aS'412493'
p1552
aS'412251'
p1553
aS'400034'
p1554
aS'400040'
p1555
aS'400054'
p1556
aS'300021'
p1557
aS'402675'
p1558
aS'400576'
p1559
aS'300023'
p1560
aS'300025'
p1561
aS'412248'
p1562
aS'300027'
p1563
aS'300030'
p1564
aS'412573'
p1565
aS'300041'
p1566
aS'412556'
p1567
aS'400134'
p1568
aS'300047'
p1569
aS'300048'
p1570
aS'300052'
p1571
aS'412218'
p1572
aS'412494'
p1573
aS'300055'
p1574
aS'400194'
p1575
aS'412320'
p1576
aS'412496'
p1577
aS'400222'
p1578
aS'412495'
p1579
aS'300071'
p1580
aS'300072'
p1581
aS'400284'
p1582
aS'300075'
p1583
aS'412492'
p1584
aS'400325'
p1585
aS'412322'
p1586
aS'300083'
p1587
aS'412491'
p1588
aS'412471'
p1589
aS'300088'
p1590
aS'300089'
p1591
aS'400546'
p1592
aS'400408'
p1593
aS'400418'
p1594
aS'400432'
p1595
aa(lp1596
S'300002'
p1597
aS'412493'
p1598
aS'412251'
p1599
aS'300005'
p1600
aS'412326'
p1601
aS'412330'
p1602
aS'412490'
p1603
aS'400034'
p1604
aS'400040'
p1605
aS'300011'
p1606
aS'400054'
p1607
aS'300018'
p1608
aS'400064'
p1609
aS'300019'
p1610
aS'412246'
p1611
aS'300021'
p1612
aS'402675'
p1613
aS'400576'
p1614
aS'300023'
p1615
aS'300025'
p1616
aS'412248'
p1617
aS'300027'
p1618
aS'412586'
p1619
aS'300030'
p1620
aS'412573'
p1621
aS'412205'
p1622
aS'300041'
p1623
aS'300043'
p1624
aS'412556'
p1625
aS'400134'
p1626
aS'300047'
p1627
aS'300048'
p1628
aS'412324'
p1629
aS'300052'
p1630
aS'412281'
p1631
aS'412554'
p1632
aS'412218'
p1633
aS'412200'
p1634
aS'412494'
p1635
aS'300055'
p1636
aS'400194'
p1637
aS'412320'
p1638
aS'412496'
p1639
aS'412582'
p1640
aS'400222'
p1641
aS'412242'
p1642
aS'300063'
p1643
aS'300065'
p1644
aS'412495'
p1645
aS'412391'
p1646
aS'300071'
p1647
aS'412243'
p1648
aS'300072'
p1649
aS'300073'
p1650
aS'400284'
p1651
aS'300075'
p1652
aS'300076'
p1653
aS'300078'
p1654
aS'412492'
p1655
aS'400325'
p1656
aS'300080'
p1657
aS'300082'
p1658
aS'412322'
p1659
aS'300083'
p1660
aS'412491'
p1661
aS'412507'
p1662
aS'412471'
p1663
aS'300088'
p1664
aS'412323'
p1665
aS'300089'
p1666
aS'300093'
p1667
aS'412244'
p1668
aS'400546'
p1669
aS'400408'
p1670
aS'400412'
p1671
aS'400418'
p1672
aS'412321'
p1673
aS'412542'
p1674
aS'400432'
p1675
aS'300100'
p1676
aa(lp1677
S'300002'
p1678
aS'412493'
p1679
aS'400013'
p1680
aS'412251'
p1681
aS'300005'
p1682
aS'412326'
p1683
aS'412330'
p1684
aS'412490'
p1685
aS'400034'
p1686
aS'400040'
p1687
aS'300011'
p1688
aS'400050'
p1689
aS'400054'
p1690
aS'300018'
p1691
aS'400064'
p1692
aS'300019'
p1693
aS'412246'
p1694
aS'402675'
p1695
aS'400576'
p1696
aS'300025'
p1697
aS'412390'
p1698
aS'412248'
p1699
aS'300027'
p1700
aS'412586'
p1701
aS'300030'
p1702
aS'412573'
p1703
aS'412205'
p1704
aS'300038'
p1705
aS'300041'
p1706
aS'300043'
p1707
aS'412556'
p1708
aS'400134'
p1709
aS'412378'
p1710
aS'412223'
p1711
aS'300047'
p1712
aS'300048'
p1713
aS'412324'
p1714
aS'300051'
p1715
aS'300052'
p1716
aS'412281'
p1717
aS'412554'
p1718
aS'412218'
p1719
aS'412200'
p1720
aS'412494'
p1721
aS'300055'
p1722
aS'412320'
p1723
aS'300058'
p1724
aS'412496'
p1725
aS'412582'
p1726
aS'412545'
p1727
aS'400222'
p1728
aS'412242'
p1729
aS'300063'
p1730
aS'300065'
p1731
aS'412495'
p1732
aS'300066'
p1733
aS'412391'
p1734
aS'300071'
p1735
aS'412243'
p1736
aS'300072'
p1737
aS'400272'
p1738
aS'412325'
p1739
aS'300073'
p1740
aS'400284'
p1741
aS'300075'
p1742
aS'412194'
p1743
aS'300076'
p1744
aS'300078'
p1745
aS'412492'
p1746
aS'400325'
p1747
aS'300080'
p1748
aS'300081'
p1749
aS'300082'
p1750
aS'412322'
p1751
aS'300083'
p1752
aS'300084'
p1753
aS'412491'
p1754
aS'400357'
p1755
aS'412507'
p1756
aS'300087'
p1757
aS'412471'
p1758
aS'412323'
p1759
aS'300093'
p1760
aS'412244'
p1761
aS'400546'
p1762
aS'400408'
p1763
aS'400412'
p1764
aS'400413'
p1765
aS'400418'
p1766
aS'412321'
p1767
aS'412542'
p1768
aS'412247'
p1769
aS'400432'
p1770
aS'300100'
p1771
aa(lp1772
S'300002'
p1773
aS'412493'
p1774
aS'412251'
p1775
aS'400034'
p1776
aS'400040'
p1777
aS'400054'
p1778
aS'300021'
p1779
aS'402675'
p1780
aS'400576'
p1781
aS'300023'
p1782
aS'412248'
p1783
aS'300027'
p1784
aS'300030'
p1785
aS'412573'
p1786
aS'300041'
p1787
aS'412556'
p1788
aS'400134'
p1789
aS'300047'
p1790
aS'300048'
p1791
aS'412324'
p1792
aS'300052'
p1793
aS'412494'
p1794
aS'300055'
p1795
aS'400194'
p1796
aS'412320'
p1797
aS'412496'
p1798
aS'412495'
p1799
aS'412391'
p1800
aS'300071'
p1801
aS'300072'
p1802
aS'400284'
p1803
aS'412492'
p1804
aS'400325'
p1805
aS'412322'
p1806
aS'300083'
p1807
aS'412491'
p1808
aS'412471'
p1809
aS'300088'
p1810
aS'300089'
p1811
aS'400546'
p1812
aS'400408'
p1813
aS'400418'
p1814
aS'400432'
p1815
aa(lp1816
S'300002'
p1817
aS'412493'
p1818
aS'412251'
p1819
aS'400034'
p1820
aS'400040'
p1821
aS'400054'
p1822
aS'300021'
p1823
aS'402675'
p1824
aS'400576'
p1825
aS'300023'
p1826
aS'412248'
p1827
aS'300027'
p1828
aS'300030'
p1829
aS'412573'
p1830
aS'300041'
p1831
aS'412556'
p1832
aS'400134'
p1833
aS'300047'
p1834
aS'300048'
p1835
aS'300052'
p1836
aS'412218'
p1837
aS'412494'
p1838
aS'300055'
p1839
aS'400194'
p1840
aS'412320'
p1841
aS'412496'
p1842
aS'400222'
p1843
aS'412495'
p1844
aS'300071'
p1845
aS'300072'
p1846
aS'400284'
p1847
aS'412492'
p1848
aS'400325'
p1849
aS'412322'
p1850
aS'300083'
p1851
aS'412491'
p1852
aS'412471'
p1853
aS'300088'
p1854
aS'300089'
p1855
aS'400546'
p1856
aS'400408'
p1857
aS'400418'
p1858
aS'400432'
p1859
aa(lp1860
S'300002'
p1861
aS'412493'
p1862
aS'400013'
p1863
aS'412251'
p1864
aS'300005'
p1865
aS'412326'
p1866
aS'412330'
p1867
aS'412490'
p1868
aS'400034'
p1869
aS'400040'
p1870
aS'300011'
p1871
aS'400050'
p1872
aS'400054'
p1873
aS'300018'
p1874
aS'400064'
p1875
aS'300019'
p1876
aS'412246'
p1877
aS'300021'
p1878
aS'402675'
p1879
aS'300023'
p1880
aS'300025'
p1881
aS'412390'
p1882
aS'412248'
p1883
aS'300027'
p1884
aS'412586'
p1885
aS'300030'
p1886
aS'412573'
p1887
aS'412205'
p1888
aS'300038'
p1889
aS'300041'
p1890
aS'300043'
p1891
aS'412556'
p1892
aS'400134'
p1893
aS'412378'
p1894
aS'300047'
p1895
aS'300048'
p1896
aS'412324'
p1897
aS'300051'
p1898
aS'300052'
p1899
aS'412281'
p1900
aS'412554'
p1901
aS'412218'
p1902
aS'412200'
p1903
aS'412494'
p1904
aS'400194'
p1905
aS'412320'
p1906
aS'300058'
p1907
aS'412582'
p1908
aS'412545'
p1909
aS'400222'
p1910
aS'412242'
p1911
aS'300063'
p1912
aS'300064'
p1913
aS'300065'
p1914
aS'300066'
p1915
aS'412391'
p1916
aS'412243'
p1917
aS'300072'
p1918
aS'400272'
p1919
aS'412325'
p1920
aS'300073'
p1921
aS'400284'
p1922
aS'300075'
p1923
aS'412194'
p1924
aS'300076'
p1925
aS'300078'
p1926
aS'412492'
p1927
aS'400325'
p1928
aS'300080'
p1929
aS'300081'
p1930
aS'300082'
p1931
aS'412322'
p1932
aS'300083'
p1933
aS'300084'
p1934
aS'412491'
p1935
aS'400357'
p1936
aS'412507'
p1937
aS'300087'
p1938
aS'412471'
p1939
aS'412323'
p1940
aS'300089'
p1941
aS'300093'
p1942
aS'412244'
p1943
aS'400546'
p1944
aS'400408'
p1945
aS'400412'
p1946
aS'400413'
p1947
aS'400418'
p1948
aS'412321'
p1949
aS'412542'
p1950
aS'412247'
p1951
aS'400432'
p1952
aS'300100'
p1953
aa(lp1954
S'300002'
p1955
aS'412493'
p1956
aS'412251'
p1957
aS'400034'
p1958
aS'400040'
p1959
aS'400054'
p1960
aS'300021'
p1961
aS'402675'
p1962
aS'400576'
p1963
aS'300023'
p1964
aS'300025'
p1965
aS'412248'
p1966
aS'300027'
p1967
aS'300030'
p1968
aS'412573'
p1969
aS'300041'
p1970
aS'412556'
p1971
aS'400134'
p1972
aS'300047'
p1973
aS'300048'
p1974
aS'300052'
p1975
aS'412218'
p1976
aS'412494'
p1977
aS'300055'
p1978
aS'400194'
p1979
aS'412320'
p1980
aS'412496'
p1981
aS'412545'
p1982
aS'400222'
p1983
aS'412495'
p1984
aS'300071'
p1985
aS'412243'
p1986
aS'300072'
p1987
aS'400284'
p1988
aS'300075'
p1989
aS'412492'
p1990
aS'400325'
p1991
aS'412322'
p1992
aS'300083'
p1993
aS'412491'
p1994
aS'412471'
p1995
aS'300088'
p1996
aS'300089'
p1997
aS'400546'
p1998
aS'400408'
p1999
aS'400418'
p2000
aS'400432'
p2001
aa(lp2002
S'300002'
p2003
aS'412493'
p2004
aS'412251'
p2005
aS'400034'
p2006
aS'400040'
p2007
aS'400054'
p2008
aS'300021'
p2009
aS'402675'
p2010
aS'400576'
p2011
aS'300023'
p2012
aS'300025'
p2013
aS'412248'
p2014
aS'300027'
p2015
aS'300030'
p2016
aS'412573'
p2017
aS'300041'
p2018
aS'412556'
p2019
aS'400134'
p2020
aS'300047'
p2021
aS'300048'
p2022
aS'300052'
p2023
aS'412218'
p2024
aS'412494'
p2025
aS'300055'
p2026
aS'400194'
p2027
aS'412320'
p2028
aS'412496'
p2029
aS'400222'
p2030
aS'412495'
p2031
aS'300071'
p2032
aS'300072'
p2033
aS'400284'
p2034
aS'300075'
p2035
aS'412492'
p2036
aS'400325'
p2037
aS'412322'
p2038
aS'300083'
p2039
aS'412491'
p2040
aS'412471'
p2041
aS'300088'
p2042
aS'300089'
p2043
aS'400546'
p2044
aS'400408'
p2045
aS'400418'
p2046
aS'400432'
p2047
aa(lp2048
S'300002'
p2049
aS'412493'
p2050
aS'412251'
p2051
aS'400034'
p2052
aS'400040'
p2053
aS'400054'
p2054
aS'300021'
p2055
aS'402675'
p2056
aS'400576'
p2057
aS'300023'
p2058
aS'412248'
p2059
aS'300027'
p2060
aS'300030'
p2061
aS'412573'
p2062
aS'300041'
p2063
aS'412556'
p2064
aS'400134'
p2065
aS'300047'
p2066
aS'300048'
p2067
aS'300052'
p2068
aS'412218'
p2069
aS'412494'
p2070
aS'300055'
p2071
aS'400194'
p2072
aS'412320'
p2073
aS'412496'
p2074
aS'400222'
p2075
aS'412495'
p2076
aS'300071'
p2077
aS'300072'
p2078
aS'400284'
p2079
aS'412492'
p2080
aS'400325'
p2081
aS'412322'
p2082
aS'300083'
p2083
aS'412491'
p2084
aS'412471'
p2085
aS'300088'
p2086
aS'300089'
p2087
aS'400546'
p2088
aS'400408'
p2089
aS'400418'
p2090
aS'400432'
p2091
aa(lp2092
S'412493'
p2093
aS'412251'
p2094
aS'400034'
p2095
aS'400040'
p2096
aS'400054'
p2097
aS'300021'
p2098
aS'402675'
p2099
aS'400576'
p2100
aS'300023'
p2101
aS'300025'
p2102
aS'412248'
p2103
aS'300027'
p2104
aS'300030'
p2105
aS'412573'
p2106
aS'300041'
p2107
aS'412556'
p2108
aS'400134'
p2109
aS'300047'
p2110
aS'300048'
p2111
aS'300052'
p2112
aS'412218'
p2113
aS'412494'
p2114
aS'300055'
p2115
aS'400194'
p2116
aS'412320'
p2117
aS'412496'
p2118
aS'400222'
p2119
aS'412495'
p2120
aS'412391'
p2121
aS'300071'
p2122
aS'412243'
p2123
aS'300072'
p2124
aS'400284'
p2125
aS'300075'
p2126
aS'412492'
p2127
aS'400325'
p2128
aS'412322'
p2129
aS'300083'
p2130
aS'412491'
p2131
aS'412471'
p2132
aS'300088'
p2133
aS'300089'
p2134
aS'400546'
p2135
aS'400408'
p2136
aS'400418'
p2137
aS'400432'
p2138
aa(lp2139
S'300002'
p2140
aS'412493'
p2141
aS'412251'
p2142
aS'400034'
p2143
aS'400040'
p2144
aS'400054'
p2145
aS'300021'
p2146
aS'402675'
p2147
aS'400576'
p2148
aS'300023'
p2149
aS'300025'
p2150
aS'412248'
p2151
aS'300027'
p2152
aS'300030'
p2153
aS'412573'
p2154
aS'300041'
p2155
aS'412556'
p2156
aS'400134'
p2157
aS'300047'
p2158
aS'300048'
p2159
aS'300052'
p2160
aS'412218'
p2161
aS'412494'
p2162
aS'300055'
p2163
aS'400194'
p2164
aS'412320'
p2165
aS'412496'
p2166
aS'400222'
p2167
aS'412495'
p2168
aS'300071'
p2169
aS'300072'
p2170
aS'400284'
p2171
aS'300075'
p2172
aS'412492'
p2173
aS'400325'
p2174
aS'412322'
p2175
aS'300083'
p2176
aS'412491'
p2177
aS'412471'
p2178
aS'300088'
p2179
aS'300089'
p2180
aS'400546'
p2181
aS'400408'
p2182
aS'400418'
p2183
aS'400432'
p2184
aa(lp2185
S'412493'
p2186
aS'412251'
p2187
aS'400034'
p2188
aS'400040'
p2189
aS'400054'
p2190
aS'300021'
p2191
aS'402675'
p2192
aS'400576'
p2193
aS'412248'
p2194
aS'300027'
p2195
aS'300041'
p2196
aS'412556'
p2197
aS'400134'
p2198
aS'300047'
p2199
aS'300048'
p2200
aS'300052'
p2201
aS'412494'
p2202
aS'300055'
p2203
aS'400194'
p2204
aS'412320'
p2205
aS'412495'
p2206
aS'300071'
p2207
aS'300072'
p2208
aS'412492'
p2209
aS'400325'
p2210
aS'412322'
p2211
aS'412491'
p2212
aS'412471'
p2213
aS'300088'
p2214
aS'400546'
p2215
aS'400408'
p2216
aa(lp2217
S'300002'
p2218
aS'412493'
p2219
aS'412251'
p2220
aS'400040'
p2221
aS'400054'
p2222
aS'412246'
p2223
aS'300021'
p2224
aS'402675'
p2225
aS'400576'
p2226
aS'300023'
p2227
aS'412248'
p2228
aS'300027'
p2229
aS'300030'
p2230
aS'412573'
p2231
aS'300041'
p2232
aS'400134'
p2233
aS'300047'
p2234
aS'300052'
p2235
aS'412218'
p2236
aS'412494'
p2237
aS'300055'
p2238
aS'400194'
p2239
aS'412496'
p2240
aS'400222'
p2241
aS'412495'
p2242
aS'300071'
p2243
aS'300072'
p2244
aS'400284'
p2245
aS'412492'
p2246
aS'400325'
p2247
aS'412322'
p2248
aS'300083'
p2249
aS'412491'
p2250
aS'412471'
p2251
aS'300088'
p2252
aS'300089'
p2253
aS'400546'
p2254
aS'400408'
p2255
aS'400418'
p2256
aS'400432'
p2257
aa(lp2258
S'300002'
p2259
aS'412493'
p2260
aS'412251'
p2261
aS'400034'
p2262
aS'400040'
p2263
aS'400054'
p2264
aS'300021'
p2265
aS'402675'
p2266
aS'400576'
p2267
aS'300023'
p2268
aS'412248'
p2269
aS'300027'
p2270
aS'300030'
p2271
aS'300041'
p2272
aS'412556'
p2273
aS'400134'
p2274
aS'300047'
p2275
aS'300048'
p2276
aS'300052'
p2277
aS'412494'
p2278
aS'300055'
p2279
aS'400194'
p2280
aS'412320'
p2281
aS'412496'
p2282
aS'400222'
p2283
aS'300071'
p2284
aS'300072'
p2285
aS'400284'
p2286
aS'300075'
p2287
aS'400325'
p2288
aS'412322'
p2289
aS'300083'
p2290
aS'412491'
p2291
aS'412471'
p2292
aS'300088'
p2293
aS'300089'
p2294
aS'400546'
p2295
aS'400408'
p2296
aS'400418'
p2297
aS'400432'
p2298
aa(lp2299
S'300002'
p2300
aS'412493'
p2301
aS'400013'
p2302
aS'412251'
p2303
aS'300005'
p2304
aS'412326'
p2305
aS'412330'
p2306
aS'412490'
p2307
aS'400034'
p2308
aS'400040'
p2309
aS'300011'
p2310
aS'400050'
p2311
aS'400054'
p2312
aS'300018'
p2313
aS'400064'
p2314
aS'300019'
p2315
aS'412246'
p2316
aS'300021'
p2317
aS'402675'
p2318
aS'400576'
p2319
aS'300023'
p2320
aS'300025'
p2321
aS'412390'
p2322
aS'412248'
p2323
aS'300027'
p2324
aS'412586'
p2325
aS'300030'
p2326
aS'412573'
p2327
aS'412205'
p2328
aS'300038'
p2329
aS'300041'
p2330
aS'300043'
p2331
aS'412556'
p2332
aS'400134'
p2333
aS'412378'
p2334
aS'412223'
p2335
aS'300047'
p2336
aS'300048'
p2337
aS'412324'
p2338
aS'300051'
p2339
aS'300052'
p2340
aS'412281'
p2341
aS'412554'
p2342
aS'412218'
p2343
aS'412200'
p2344
aS'412494'
p2345
aS'300055'
p2346
aS'400194'
p2347
aS'412320'
p2348
aS'300058'
p2349
aS'412496'
p2350
aS'412582'
p2351
aS'412545'
p2352
aS'400222'
p2353
aS'412242'
p2354
aS'300063'
p2355
aS'300065'
p2356
aS'412495'
p2357
aS'300066'
p2358
aS'412391'
p2359
aS'300071'
p2360
aS'412243'
p2361
aS'300072'
p2362
aS'400272'
p2363
aS'412325'
p2364
aS'300073'
p2365
aS'400284'
p2366
aS'300075'
p2367
aS'412194'
p2368
aS'300076'
p2369
aS'300078'
p2370
aS'412492'
p2371
aS'400325'
p2372
aS'300080'
p2373
aS'300081'
p2374
aS'300082'
p2375
aS'412322'
p2376
aS'300083'
p2377
aS'300084'
p2378
aS'412491'
p2379
aS'400357'
p2380
aS'412507'
p2381
aS'300087'
p2382
aS'412471'
p2383
aS'300088'
p2384
aS'412323'
p2385
aS'300089'
p2386
aS'300093'
p2387
aS'412244'
p2388
aS'400546'
p2389
aS'400408'
p2390
aS'400412'
p2391
aS'400413'
p2392
aS'400418'
p2393
aS'412321'
p2394
aS'412542'
p2395
aS'412247'
p2396
aS'400432'
p2397
aS'300100'
p2398
aa(lp2399
S'400013'
p2400
aS'412326'
p2401
aS'412330'
p2402
aS'412490'
p2403
aS'300011'
p2404
aS'400050'
p2405
aS'300018'
p2406
aS'400064'
p2407
aS'300019'
p2408
aS'412246'
p2409
aS'412390'
p2410
aS'412586'
p2411
aS'300038'
p2412
aS'300043'
p2413
aS'412378'
p2414
aS'412223'
p2415
aS'300051'
p2416
aS'412281'
p2417
aS'412200'
p2418
aS'412545'
p2419
aS'412242'
p2420
aS'300065'
p2421
aS'300066'
p2422
aS'400272'
p2423
aS'412325'
p2424
aS'300073'
p2425
aS'412194'
p2426
aS'300076'
p2427
aS'300078'
p2428
aS'300081'
p2429
aS'300082'
p2430
aS'400357'
p2431
aS'412507'
p2432
aS'300087'
p2433
aS'412323'
p2434
aS'300093'
p2435
aS'400412'
p2436
aS'400413'
p2437
aS'412542'
p2438
aS'412247'
p2439
aS'300100'
p2440
aa(lp2441
S'412251'
p2442
aS'400054'
p2443
aS'400576'
p2444
aS'300025'
p2445
aS'300030'
p2446
aS'412573'
p2447
aS'300041'
p2448
aS'412556'
p2449
aS'300048'
p2450
aS'412218'
p2451
aS'300055'
p2452
aS'412496'
p2453
aS'400222'
p2454
aS'412495'
p2455
aS'400284'
p2456
aS'412492'
p2457
aS'412322'
p2458
aS'300083'
p2459
aS'412491'
p2460
aS'412471'
p2461
aS'300088'
p2462
aS'300089'
p2463
aS'400546'
p2464
aS'400408'
p2465
aS'400418'
p2466
aa(lp2467
S'300002'
p2468
aS'412493'
p2469
aS'412251'
p2470
aS'412326'
p2471
aS'400034'
p2472
aS'400040'
p2473
aS'400054'
p2474
aS'300021'
p2475
aS'402675'
p2476
aS'400576'
p2477
aS'300023'
p2478
aS'300025'
p2479
aS'412248'
p2480
aS'300027'
p2481
aS'300030'
p2482
aS'412573'
p2483
aS'412205'
p2484
aS'300041'
p2485
aS'412556'
p2486
aS'400134'
p2487
aS'300047'
p2488
aS'300048'
p2489
aS'412324'
p2490
aS'300052'
p2491
aS'412281'
p2492
aS'412554'
p2493
aS'412218'
p2494
aS'412494'
p2495
aS'300055'
p2496
aS'400194'
p2497
aS'412320'
p2498
aS'412496'
p2499
aS'400222'
p2500
aS'412495'
p2501
aS'412391'
p2502
aS'300071'
p2503
aS'300072'
p2504
aS'400284'
p2505
aS'300075'
p2506
aS'412492'
p2507
aS'400325'
p2508
aS'300080'
p2509
aS'412322'
p2510
aS'300083'
p2511
aS'412491'
p2512
aS'412471'
p2513
aS'300088'
p2514
aS'300089'
p2515
aS'412244'
p2516
aS'400546'
p2517
aS'400408'
p2518
aS'400418'
p2519
aS'400432'
p2520
aa(lp2521
S'300002'
p2522
aS'412251'
p2523
aS'400034'
p2524
aS'400040'
p2525
aS'400054'
p2526
aS'300021'
p2527
aS'402675'
p2528
aS'400576'
p2529
aS'300023'
p2530
aS'412248'
p2531
aS'300027'
p2532
aS'300030'
p2533
aS'412573'
p2534
aS'412205'
p2535
aS'300041'
p2536
aS'412556'
p2537
aS'400134'
p2538
aS'300047'
p2539
aS'300048'
p2540
aS'300052'
p2541
aS'412554'
p2542
aS'412218'
p2543
aS'412494'
p2544
aS'300055'
p2545
aS'400194'
p2546
aS'412320'
p2547
aS'412496'
p2548
aS'412495'
p2549
aS'412391'
p2550
aS'300071'
p2551
aS'300072'
p2552
aS'400284'
p2553
aS'300075'
p2554
aS'412492'
p2555
aS'400325'
p2556
aS'300080'
p2557
aS'412322'
p2558
aS'300083'
p2559
aS'412491'
p2560
aS'412471'
p2561
aS'300088'
p2562
aS'300089'
p2563
aS'400546'
p2564
aS'400408'
p2565
aS'400418'
p2566
aS'400432'
p2567
aa(lp2568
S'412251'
p2569
aS'400576'
p2570
aS'300027'
p2571
aS'300030'
p2572
aS'412573'
p2573
aS'300041'
p2574
aS'400134'
p2575
aS'300055'
p2576
aS'412496'
p2577
aS'412495'
p2578
aS'300072'
p2579
aS'400284'
p2580
aS'412492'
p2581
aS'412322'
p2582
aS'412471'
p2583
aS'300088'
p2584
aS'300089'
p2585
aS'400418'
p2586
aa(lp2587
S'300002'
p2588
aS'412251'
p2589
aS'400034'
p2590
aS'400040'
p2591
aS'400054'
p2592
aS'300021'
p2593
aS'402675'
p2594
aS'400576'
p2595
aS'412248'
p2596
aS'300027'
p2597
aS'300030'
p2598
aS'412573'
p2599
aS'300041'
p2600
aS'412556'
p2601
aS'400134'
p2602
aS'300048'
p2603
aS'412218'
p2604
aS'412494'
p2605
aS'400194'
p2606
aS'412320'
p2607
aS'412496'
p2608
aS'400222'
p2609
aS'412495'
p2610
aS'300072'
p2611
aS'400284'
p2612
aS'412492'
p2613
aS'400325'
p2614
aS'412322'
p2615
aS'300083'
p2616
aS'412491'
p2617
aS'412471'
p2618
aS'300088'
p2619
aS'400546'
p2620
aS'400408'
p2621
aS'400418'
p2622
aa(lp2623
S'300002'
p2624
aS'400013'
p2625
aS'412326'
p2626
aS'412330'
p2627
aS'412490'
p2628
aS'400034'
p2629
aS'400040'
p2630
aS'300011'
p2631
aS'400050'
p2632
aS'400054'
p2633
aS'300018'
p2634
aS'400064'
p2635
aS'300019'
p2636
aS'412246'
p2637
aS'300021'
p2638
aS'400576'
p2639
aS'300023'
p2640
aS'300025'
p2641
aS'412390'
p2642
aS'412248'
p2643
aS'412586'
p2644
aS'300030'
p2645
aS'412205'
p2646
aS'300038'
p2647
aS'300041'
p2648
aS'300043'
p2649
aS'412556'
p2650
aS'412378'
p2651
aS'412223'
p2652
aS'300047'
p2653
aS'412324'
p2654
aS'300051'
p2655
aS'412281'
p2656
aS'412554'
p2657
aS'412200'
p2658
aS'412494'
p2659
aS'400194'
p2660
aS'412320'
p2661
aS'300058'
p2662
aS'412496'
p2663
aS'412582'
p2664
aS'412545'
p2665
aS'400222'
p2666
aS'412242'
p2667
aS'300063'
p2668
aS'300065'
p2669
aS'300066'
p2670
aS'412391'
p2671
aS'300071'
p2672
aS'412243'
p2673
aS'400272'
p2674
aS'300073'
p2675
aS'400284'
p2676
aS'412194'
p2677
aS'300076'
p2678
aS'300078'
p2679
aS'400325'
p2680
aS'300080'
p2681
aS'300081'
p2682
aS'300082'
p2683
aS'412322'
p2684
aS'300084'
p2685
aS'400357'
p2686
aS'412507'
p2687
aS'300087'
p2688
aS'300088'
p2689
aS'300089'
p2690
aS'300093'
p2691
aS'400546'
p2692
aS'400412'
p2693
aS'400413'
p2694
aS'412321'
p2695
aS'412542'
p2696
aS'412247'
p2697
aS'400432'
p2698
aa(lp2699
S'300002'
p2700
aS'412493'
p2701
aS'400013'
p2702
aS'300005'
p2703
aS'412326'
p2704
aS'412330'
p2705
aS'412490'
p2706
aS'300011'
p2707
aS'400050'
p2708
aS'400054'
p2709
aS'300018'
p2710
aS'400064'
p2711
aS'300019'
p2712
aS'412246'
p2713
aS'300021'
p2714
aS'402675'
p2715
aS'300023'
p2716
aS'300025'
p2717
aS'412390'
p2718
aS'412248'
p2719
aS'412586'
p2720
aS'300030'
p2721
aS'412205'
p2722
aS'300038'
p2723
aS'300043'
p2724
aS'412556'
p2725
aS'400134'
p2726
aS'412378'
p2727
aS'412223'
p2728
aS'412324'
p2729
aS'300051'
p2730
aS'412281'
p2731
aS'412554'
p2732
aS'412218'
p2733
aS'412200'
p2734
aS'412494'
p2735
aS'400194'
p2736
aS'300058'
p2737
aS'412582'
p2738
aS'412545'
p2739
aS'400222'
p2740
aS'412242'
p2741
aS'300063'
p2742
aS'300064'
p2743
aS'300065'
p2744
aS'300066'
p2745
aS'412391'
p2746
aS'300071'
p2747
aS'412243'
p2748
aS'400272'
p2749
aS'412325'
p2750
aS'300073'
p2751
aS'400284'
p2752
aS'300075'
p2753
aS'412194'
p2754
aS'300076'
p2755
aS'300078'
p2756
aS'400325'
p2757
aS'300080'
p2758
aS'300081'
p2759
aS'300082'
p2760
aS'300084'
p2761
aS'400357'
p2762
aS'412507'
p2763
aS'300087'
p2764
aS'412323'
p2765
aS'300089'
p2766
aS'300093'
p2767
aS'412244'
p2768
aS'400408'
p2769
aS'400412'
p2770
aS'400413'
p2771
aS'400418'
p2772
aS'412321'
p2773
aS'412542'
p2774
aS'412247'
p2775
aS'400432'
p2776
aS'300100'
p2777
aa(lp2778
S'300002'
p2779
aS'412493'
p2780
aS'412251'
p2781
aS'400034'
p2782
aS'400040'
p2783
aS'400054'
p2784
aS'300021'
p2785
aS'402675'
p2786
aS'400576'
p2787
aS'300023'
p2788
aS'412248'
p2789
aS'300027'
p2790
aS'300030'
p2791
aS'412573'
p2792
aS'300041'
p2793
aS'412556'
p2794
aS'400134'
p2795
aS'300047'
p2796
aS'300048'
p2797
aS'300052'
p2798
aS'412218'
p2799
aS'412494'
p2800
aS'300055'
p2801
aS'400194'
p2802
aS'412320'
p2803
aS'412496'
p2804
aS'400222'
p2805
aS'412495'
p2806
aS'412391'
p2807
aS'300071'
p2808
aS'300072'
p2809
aS'400284'
p2810
aS'412492'
p2811
aS'400325'
p2812
aS'412322'
p2813
aS'300083'
p2814
aS'412491'
p2815
aS'412471'
p2816
aS'300088'
p2817
aS'300089'
p2818
aS'400546'
p2819
aS'400408'
p2820
aS'400418'
p2821
aS'400432'
p2822
aa(lp2823
S'300002'
p2824
aS'412493'
p2825
aS'412251'
p2826
aS'400034'
p2827
aS'400040'
p2828
aS'400054'
p2829
aS'300021'
p2830
aS'402675'
p2831
aS'400576'
p2832
aS'300023'
p2833
aS'412248'
p2834
aS'300027'
p2835
aS'300030'
p2836
aS'412573'
p2837
aS'300041'
p2838
aS'412556'
p2839
aS'400134'
p2840
aS'300047'
p2841
aS'300048'
p2842
aS'300052'
p2843
aS'412218'
p2844
aS'412494'
p2845
aS'300055'
p2846
aS'400194'
p2847
aS'412320'
p2848
aS'412496'
p2849
aS'400222'
p2850
aS'300063'
p2851
aS'412495'
p2852
aS'412391'
p2853
aS'300071'
p2854
aS'300072'
p2855
aS'400284'
p2856
aS'300075'
p2857
aS'412492'
p2858
aS'400325'
p2859
aS'300080'
p2860
aS'412322'
p2861
aS'300083'
p2862
aS'412491'
p2863
aS'412471'
p2864
aS'300088'
p2865
aS'300089'
p2866
aS'400546'
p2867
aS'400408'
p2868
aS'400418'
p2869
aS'400432'
p2870
aa(lp2871
S'300002'
p2872
aS'412493'
p2873
aS'412251'
p2874
aS'400034'
p2875
aS'400040'
p2876
aS'400054'
p2877
aS'300021'
p2878
aS'402675'
p2879
aS'400576'
p2880
aS'300023'
p2881
aS'300025'
p2882
aS'412248'
p2883
aS'300027'
p2884
aS'300030'
p2885
aS'412573'
p2886
aS'300041'
p2887
aS'412556'
p2888
aS'400134'
p2889
aS'300047'
p2890
aS'300048'
p2891
aS'300052'
p2892
aS'412218'
p2893
aS'412494'
p2894
aS'300055'
p2895
aS'400194'
p2896
aS'412320'
p2897
aS'412496'
p2898
aS'400222'
p2899
aS'412495'
p2900
aS'300071'
p2901
aS'300072'
p2902
aS'400284'
p2903
aS'300075'
p2904
aS'412492'
p2905
aS'400325'
p2906
aS'412322'
p2907
aS'300083'
p2908
aS'412491'
p2909
aS'412471'
p2910
aS'300088'
p2911
aS'300089'
p2912
aS'400546'
p2913
aS'400408'
p2914
aS'400418'
p2915
aS'400432'
p2916
aa(lp2917
S'300002'
p2918
aS'412493'
p2919
aS'412251'
p2920
aS'400034'
p2921
aS'400040'
p2922
aS'400054'
p2923
aS'300021'
p2924
aS'402675'
p2925
aS'400576'
p2926
aS'300023'
p2927
aS'300025'
p2928
aS'412248'
p2929
aS'300027'
p2930
aS'300030'
p2931
aS'412573'
p2932
aS'300041'
p2933
aS'412556'
p2934
aS'400134'
p2935
aS'300047'
p2936
aS'300048'
p2937
aS'300052'
p2938
aS'412218'
p2939
aS'412494'
p2940
aS'300055'
p2941
aS'400194'
p2942
aS'412320'
p2943
aS'412496'
p2944
aS'400222'
p2945
aS'412495'
p2946
aS'300071'
p2947
aS'300072'
p2948
aS'400284'
p2949
aS'300075'
p2950
aS'412492'
p2951
aS'400325'
p2952
aS'300080'
p2953
aS'412322'
p2954
aS'300083'
p2955
aS'412491'
p2956
aS'412471'
p2957
aS'300088'
p2958
aS'300089'
p2959
aS'400546'
p2960
aS'400408'
p2961
aS'400412'
p2962
aS'400418'
p2963
aS'400432'
p2964
aa(lp2965
S'300002'
p2966
aS'412493'
p2967
aS'412251'
p2968
aS'412326'
p2969
aS'400034'
p2970
aS'400040'
p2971
aS'400054'
p2972
aS'300021'
p2973
aS'402675'
p2974
aS'400576'
p2975
aS'300023'
p2976
aS'300025'
p2977
aS'412248'
p2978
aS'300027'
p2979
aS'300030'
p2980
aS'412573'
p2981
aS'300041'
p2982
aS'412556'
p2983
aS'400134'
p2984
aS'300047'
p2985
aS'300048'
p2986
aS'412324'
p2987
aS'300052'
p2988
aS'412554'
p2989
aS'412218'
p2990
aS'412494'
p2991
aS'300055'
p2992
aS'400194'
p2993
aS'412320'
p2994
aS'412496'
p2995
aS'412582'
p2996
aS'400222'
p2997
aS'412495'
p2998
aS'412391'
p2999
aS'300071'
p3000
aS'412243'
p3001
aS'300072'
p3002
aS'400284'
p3003
aS'300075'
p3004
aS'412492'
p3005
aS'400325'
p3006
aS'412322'
p3007
aS'300083'
p3008
aS'412491'
p3009
aS'412471'
p3010
aS'300088'
p3011
aS'300089'
p3012
aS'400546'
p3013
aS'400408'
p3014
aS'400418'
p3015
aS'400432'
p3016
aa(lp3017
S'300002'
p3018
aS'412493'
p3019
aS'412251'
p3020
aS'300005'
p3021
aS'412326'
p3022
aS'412330'
p3023
aS'400034'
p3024
aS'400040'
p3025
aS'400054'
p3026
aS'412246'
p3027
aS'300021'
p3028
aS'402675'
p3029
aS'400576'
p3030
aS'300023'
p3031
aS'300025'
p3032
aS'412248'
p3033
aS'300027'
p3034
aS'300030'
p3035
aS'412573'
p3036
aS'412205'
p3037
aS'300041'
p3038
aS'412556'
p3039
aS'400134'
p3040
aS'300047'
p3041
aS'300048'
p3042
aS'412324'
p3043
aS'300052'
p3044
aS'412218'
p3045
aS'412494'
p3046
aS'300055'
p3047
aS'400194'
p3048
aS'412320'
p3049
aS'412496'
p3050
aS'412582'
p3051
aS'412545'
p3052
aS'400222'
p3053
aS'412242'
p3054
aS'412495'
p3055
aS'412391'
p3056
aS'300071'
p3057
aS'412243'
p3058
aS'300072'
p3059
aS'412325'
p3060
aS'400284'
p3061
aS'300075'
p3062
aS'300078'
p3063
aS'412492'
p3064
aS'400325'
p3065
aS'300080'
p3066
aS'412322'
p3067
aS'300083'
p3068
aS'412491'
p3069
aS'412471'
p3070
aS'300088'
p3071
aS'412323'
p3072
aS'300089'
p3073
aS'412244'
p3074
aS'400546'
p3075
aS'400408'
p3076
aS'400418'
p3077
aS'412321'
p3078
aS'400432'
p3079
aa(lp3080
S'400013'
p3081
aS'412330'
p3082
aS'412490'
p3083
aS'300011'
p3084
aS'300018'
p3085
aS'400064'
p3086
aS'300038'
p3087
aS'300043'
p3088
aS'412378'
p3089
aS'412223'
p3090
aS'300051'
p3091
aS'412281'
p3092
aS'412200'
p3093
aS'300065'
p3094
aS'300066'
p3095
aS'400272'
p3096
aS'412325'
p3097
aS'300073'
p3098
aS'412194'
p3099
aS'300076'
p3100
aS'300078'
p3101
aS'300081'
p3102
aS'300082'
p3103
aS'300084'
p3104
aS'400357'
p3105
aS'412507'
p3106
aS'300087'
p3107
aS'300093'
p3108
aS'412244'
p3109
aS'412321'
p3110
aS'412542'
p3111
aS'412247'
p3112
aS'300100'
p3113
aa(lp3114
S'300002'
p3115
aS'412493'
p3116
aS'412251'
p3117
aS'300005'
p3118
aS'400034'
p3119
aS'400040'
p3120
aS'400054'
p3121
aS'300021'
p3122
aS'402675'
p3123
aS'400576'
p3124
aS'300023'
p3125
aS'412248'
p3126
aS'300027'
p3127
aS'300030'
p3128
aS'412573'
p3129
aS'300041'
p3130
aS'412556'
p3131
aS'400134'
p3132
aS'300047'
p3133
aS'300048'
p3134
aS'300052'
p3135
aS'412218'
p3136
aS'412494'
p3137
aS'300055'
p3138
aS'400194'
p3139
aS'412320'
p3140
aS'412496'
p3141
aS'400222'
p3142
aS'412495'
p3143
aS'412391'
p3144
aS'300071'
p3145
aS'300072'
p3146
aS'400284'
p3147
aS'300075'
p3148
aS'412492'
p3149
aS'400325'
p3150
aS'412322'
p3151
aS'300083'
p3152
aS'412491'
p3153
aS'412471'
p3154
aS'300088'
p3155
aS'300089'
p3156
aS'400546'
p3157
aS'400408'
p3158
aS'400418'
p3159
aS'400432'
p3160
aa(lp3161
S'300002'
p3162
aS'412493'
p3163
aS'400013'
p3164
aS'412251'
p3165
aS'300005'
p3166
aS'412326'
p3167
aS'412330'
p3168
aS'412490'
p3169
aS'400034'
p3170
aS'400040'
p3171
aS'300011'
p3172
aS'400050'
p3173
aS'400054'
p3174
aS'300018'
p3175
aS'400064'
p3176
aS'300019'
p3177
aS'412246'
p3178
aS'300021'
p3179
aS'402675'
p3180
aS'400576'
p3181
aS'300023'
p3182
aS'300025'
p3183
aS'412390'
p3184
aS'412248'
p3185
aS'300027'
p3186
aS'412586'
p3187
aS'300030'
p3188
aS'412573'
p3189
aS'412205'
p3190
aS'300038'
p3191
aS'300041'
p3192
aS'300043'
p3193
aS'412556'
p3194
aS'400134'
p3195
aS'412378'
p3196
aS'412223'
p3197
aS'300047'
p3198
aS'300048'
p3199
aS'412324'
p3200
aS'300051'
p3201
aS'300052'
p3202
aS'412281'
p3203
aS'412554'
p3204
aS'412218'
p3205
aS'412200'
p3206
aS'412494'
p3207
aS'300055'
p3208
aS'400194'
p3209
aS'412320'
p3210
aS'300058'
p3211
aS'412496'
p3212
aS'412582'
p3213
aS'412545'
p3214
aS'400222'
p3215
aS'412242'
p3216
aS'300063'
p3217
aS'300065'
p3218
aS'412495'
p3219
aS'300066'
p3220
aS'412391'
p3221
aS'300071'
p3222
aS'412243'
p3223
aS'300072'
p3224
aS'400272'
p3225
aS'412325'
p3226
aS'300073'
p3227
aS'400284'
p3228
aS'300075'
p3229
aS'412194'
p3230
aS'300076'
p3231
aS'300078'
p3232
aS'412492'
p3233
aS'400325'
p3234
aS'300080'
p3235
aS'300081'
p3236
aS'300082'
p3237
aS'412322'
p3238
aS'300083'
p3239
aS'300084'
p3240
aS'412491'
p3241
aS'400357'
p3242
aS'412507'
p3243
aS'300087'
p3244
aS'412471'
p3245
aS'300088'
p3246
aS'412323'
p3247
aS'300089'
p3248
aS'300093'
p3249
aS'412244'
p3250
aS'400546'
p3251
aS'400408'
p3252
aS'400412'
p3253
aS'400413'
p3254
aS'400418'
p3255
aS'412321'
p3256
aS'412542'
p3257
aS'412247'
p3258
aS'400432'
p3259
aS'300100'
p3260
aa(lp3261
S'300002'
p3262
aS'412251'
p3263
aS'400034'
p3264
aS'400040'
p3265
aS'400054'
p3266
aS'300021'
p3267
aS'402675'
p3268
aS'300023'
p3269
aS'412248'
p3270
aS'300027'
p3271
aS'300041'
p3272
aS'412556'
p3273
aS'400134'
p3274
aS'300047'
p3275
aS'300048'
p3276
aS'300052'
p3277
aS'412218'
p3278
aS'412494'
p3279
aS'300055'
p3280
aS'400194'
p3281
aS'412320'
p3282
aS'412496'
p3283
aS'300071'
p3284
aS'300072'
p3285
aS'400325'
p3286
aS'412322'
p3287
aS'300083'
p3288
aS'412471'
p3289
aS'300088'
p3290
aS'300089'
p3291
aS'400546'
p3292
aS'400408'
p3293
aS'400418'
p3294
aS'400432'
p3295
aa(lp3296
S'300002'
p3297
aS'400013'
p3298
aS'300005'
p3299
aS'412326'
p3300
aS'412330'
p3301
aS'412490'
p3302
aS'300011'
p3303
aS'400050'
p3304
aS'300018'
p3305
aS'400064'
p3306
aS'300019'
p3307
aS'412246'
p3308
aS'300023'
p3309
aS'300025'
p3310
aS'412390'
p3311
aS'412205'
p3312
aS'300038'
p3313
aS'300043'
p3314
aS'412378'
p3315
aS'412223'
p3316
aS'412324'
p3317
aS'300051'
p3318
aS'412281'
p3319
aS'412554'
p3320
aS'412218'
p3321
aS'412200'
p3322
aS'412494'
p3323
aS'300058'
p3324
aS'412582'
p3325
aS'300060'
p3326
aS'412242'
p3327
aS'300063'
p3328
aS'300064'
p3329
aS'300065'
p3330
aS'300066'
p3331
aS'412391'
p3332
aS'412243'
p3333
aS'400272'
p3334
aS'412325'
p3335
aS'300073'
p3336
aS'300075'
p3337
aS'412194'
p3338
aS'300078'
p3339
aS'300080'
p3340
aS'300081'
p3341
aS'300082'
p3342
aS'300084'
p3343
aS'400357'
p3344
aS'412507'
p3345
aS'300087'
p3346
aS'412323'
p3347
aS'300089'
p3348
aS'300093'
p3349
aS'412244'
p3350
aS'400412'
p3351
aS'400413'
p3352
aS'400418'
p3353
aS'412321'
p3354
aS'412542'
p3355
aS'412247'
p3356
aS'400432'
p3357
aS'300100'
p3358
aa(lp3359
S'412493'
p3360
aS'400013'
p3361
aS'300005'
p3362
aS'412326'
p3363
aS'412330'
p3364
aS'412490'
p3365
aS'400034'
p3366
aS'300011'
p3367
aS'400050'
p3368
aS'300018'
p3369
aS'400064'
p3370
aS'300019'
p3371
aS'412246'
p3372
aS'300023'
p3373
aS'300025'
p3374
aS'412390'
p3375
aS'412205'
p3376
aS'300038'
p3377
aS'300043'
p3378
aS'412378'
p3379
aS'412223'
p3380
aS'300047'
p3381
aS'412324'
p3382
aS'300051'
p3383
aS'412281'
p3384
aS'412554'
p3385
aS'412218'
p3386
aS'412200'
p3387
aS'412494'
p3388
aS'300058'
p3389
aS'412582'
p3390
aS'412545'
p3391
aS'412242'
p3392
aS'300063'
p3393
aS'300064'
p3394
aS'300065'
p3395
aS'300066'
p3396
aS'300071'
p3397
aS'412243'
p3398
aS'400272'
p3399
aS'412325'
p3400
aS'300073'
p3401
aS'300075'
p3402
aS'412194'
p3403
aS'300078'
p3404
aS'300080'
p3405
aS'300081'
p3406
aS'300082'
p3407
aS'300084'
p3408
aS'400357'
p3409
aS'412507'
p3410
aS'300087'
p3411
aS'412323'
p3412
aS'300089'
p3413
aS'300093'
p3414
aS'412244'
p3415
aS'400546'
p3416
aS'400412'
p3417
aS'400413'
p3418
aS'412321'
p3419
aS'412542'
p3420
aS'412247'
p3421
aS'400432'
p3422
aS'300100'
p3423
aa(lp3424
S'300002'
p3425
aS'412493'
p3426
aS'412251'
p3427
aS'400034'
p3428
aS'400040'
p3429
aS'400054'
p3430
aS'300021'
p3431
aS'402675'
p3432
aS'400576'
p3433
aS'300023'
p3434
aS'300025'
p3435
aS'412248'
p3436
aS'300027'
p3437
aS'300030'
p3438
aS'412573'
p3439
aS'300041'
p3440
aS'412556'
p3441
aS'400134'
p3442
aS'300047'
p3443
aS'300048'
p3444
aS'300052'
p3445
aS'412218'
p3446
aS'412494'
p3447
aS'300055'
p3448
aS'400194'
p3449
aS'412320'
p3450
aS'412496'
p3451
aS'400222'
p3452
aS'412495'
p3453
aS'412391'
p3454
aS'300071'
p3455
aS'300072'
p3456
aS'400284'
p3457
aS'300075'
p3458
aS'412492'
p3459
aS'400325'
p3460
aS'412322'
p3461
aS'300083'
p3462
aS'412491'
p3463
aS'412471'
p3464
aS'300088'
p3465
aS'300089'
p3466
aS'400546'
p3467
aS'400408'
p3468
aS'400418'
p3469
aS'400432'
p3470
aa(lp3471
S'300002'
p3472
aS'412493'
p3473
aS'400013'
p3474
aS'412251'
p3475
aS'300005'
p3476
aS'412326'
p3477
aS'412330'
p3478
aS'412490'
p3479
aS'400034'
p3480
aS'400040'
p3481
aS'300011'
p3482
aS'400050'
p3483
aS'400054'
p3484
aS'300018'
p3485
aS'400064'
p3486
aS'300019'
p3487
aS'412246'
p3488
aS'300021'
p3489
aS'402675'
p3490
aS'400576'
p3491
aS'300023'
p3492
aS'300025'
p3493
aS'412390'
p3494
aS'412248'
p3495
aS'300027'
p3496
aS'412586'
p3497
aS'300030'
p3498
aS'412205'
p3499
aS'300038'
p3500
aS'300041'
p3501
aS'300043'
p3502
aS'412556'
p3503
aS'400134'
p3504
aS'412378'
p3505
aS'412223'
p3506
aS'300047'
p3507
aS'300048'
p3508
aS'412324'
p3509
aS'300051'
p3510
aS'300052'
p3511
aS'412281'
p3512
aS'412554'
p3513
aS'412218'
p3514
aS'412200'
p3515
aS'412494'
p3516
aS'300055'
p3517
aS'400194'
p3518
aS'412320'
p3519
aS'300058'
p3520
aS'412496'
p3521
aS'412582'
p3522
aS'412545'
p3523
aS'400222'
p3524
aS'412242'
p3525
aS'300063'
p3526
aS'300065'
p3527
aS'300066'
p3528
aS'412391'
p3529
aS'300071'
p3530
aS'412243'
p3531
aS'300072'
p3532
aS'400272'
p3533
aS'412325'
p3534
aS'300073'
p3535
aS'400284'
p3536
aS'300075'
p3537
aS'412194'
p3538
aS'300076'
p3539
aS'300078'
p3540
aS'400325'
p3541
aS'300080'
p3542
aS'300081'
p3543
aS'300082'
p3544
aS'412322'
p3545
aS'300083'
p3546
aS'300084'
p3547
aS'412491'
p3548
aS'400357'
p3549
aS'412507'
p3550
aS'300087'
p3551
aS'412471'
p3552
aS'300088'
p3553
aS'412323'
p3554
aS'300089'
p3555
aS'300093'
p3556
aS'412244'
p3557
aS'400546'
p3558
aS'400408'
p3559
aS'400412'
p3560
aS'400413'
p3561
aS'400418'
p3562
aS'412321'
p3563
aS'412542'
p3564
aS'412247'
p3565
aS'400432'
p3566
aS'300100'
p3567
aa(lp3568
S'300002'
p3569
aS'412493'
p3570
aS'412251'
p3571
aS'412326'
p3572
aS'412330'
p3573
aS'412490'
p3574
aS'400034'
p3575
aS'400040'
p3576
aS'400054'
p3577
aS'400064'
p3578
aS'300019'
p3579
aS'300021'
p3580
aS'402675'
p3581
aS'400576'
p3582
aS'300023'
p3583
aS'300025'
p3584
aS'412390'
p3585
aS'412248'
p3586
aS'300027'
p3587
aS'300030'
p3588
aS'412573'
p3589
aS'412205'
p3590
aS'300041'
p3591
aS'412556'
p3592
aS'400134'
p3593
aS'412378'
p3594
aS'412223'
p3595
aS'300047'
p3596
aS'300048'
p3597
aS'412324'
p3598
aS'300051'
p3599
aS'300052'
p3600
aS'412281'
p3601
aS'412554'
p3602
aS'412494'
p3603
aS'300055'
p3604
aS'400194'
p3605
aS'412320'
p3606
aS'300058'
p3607
aS'412496'
p3608
aS'412582'
p3609
aS'412545'
p3610
aS'412242'
p3611
aS'300065'
p3612
aS'412391'
p3613
aS'300071'
p3614
aS'412243'
p3615
aS'300072'
p3616
aS'400284'
p3617
aS'300075'
p3618
aS'412194'
p3619
aS'400325'
p3620
aS'300082'
p3621
aS'412322'
p3622
aS'300083'
p3623
aS'412507'
p3624
aS'412471'
p3625
aS'300088'
p3626
aS'412323'
p3627
aS'300089'
p3628
aS'412244'
p3629
aS'400546'
p3630
aS'400408'
p3631
aS'400412'
p3632
aS'400418'
p3633
aS'412321'
p3634
aS'412542'
p3635
aS'300100'
p3636
aa(lp3637
S'300002'
p3638
aS'400013'
p3639
aS'300005'
p3640
aS'412326'
p3641
aS'412330'
p3642
aS'412490'
p3643
aS'400034'
p3644
aS'400040'
p3645
aS'300011'
p3646
aS'400050'
p3647
aS'300018'
p3648
aS'400064'
p3649
aS'300019'
p3650
aS'412246'
p3651
aS'300021'
p3652
aS'300023'
p3653
aS'300025'
p3654
aS'412390'
p3655
aS'412248'
p3656
aS'300027'
p3657
aS'412586'
p3658
aS'412205'
p3659
aS'300038'
p3660
aS'300043'
p3661
aS'412378'
p3662
aS'412223'
p3663
aS'412324'
p3664
aS'300051'
p3665
aS'300052'
p3666
aS'412281'
p3667
aS'412554'
p3668
aS'412200'
p3669
aS'412494'
p3670
aS'400194'
p3671
aS'412320'
p3672
aS'300058'
p3673
aS'412582'
p3674
aS'412545'
p3675
aS'412242'
p3676
aS'300063'
p3677
aS'300065'
p3678
aS'300066'
p3679
aS'412391'
p3680
aS'412243'
p3681
aS'300072'
p3682
aS'400272'
p3683
aS'412325'
p3684
aS'300073'
p3685
aS'300075'
p3686
aS'412194'
p3687
aS'300076'
p3688
aS'300078'
p3689
aS'400325'
p3690
aS'300080'
p3691
aS'300081'
p3692
aS'300082'
p3693
aS'300084'
p3694
aS'400357'
p3695
aS'412507'
p3696
aS'300087'
p3697
aS'412323'
p3698
aS'300089'
p3699
aS'300093'
p3700
aS'400546'
p3701
aS'400412'
p3702
aS'400413'
p3703
aS'412321'
p3704
aS'412542'
p3705
aS'412247'
p3706
aS'300100'
p3707
aa(lp3708
S'300002'
p3709
aS'412493'
p3710
aS'400013'
p3711
aS'412251'
p3712
aS'412326'
p3713
aS'412330'
p3714
aS'412490'
p3715
aS'400034'
p3716
aS'400040'
p3717
aS'400054'
p3718
aS'300018'
p3719
aS'400064'
p3720
aS'412246'
p3721
aS'300021'
p3722
aS'402675'
p3723
aS'400576'
p3724
aS'300023'
p3725
aS'300025'
p3726
aS'412248'
p3727
aS'300027'
p3728
aS'412586'
p3729
aS'300030'
p3730
aS'412573'
p3731
aS'412205'
p3732
aS'300038'
p3733
aS'300041'
p3734
aS'412556'
p3735
aS'400134'
p3736
aS'412378'
p3737
aS'412223'
p3738
aS'300047'
p3739
aS'300048'
p3740
aS'412324'
p3741
aS'300052'
p3742
aS'412554'
p3743
aS'412218'
p3744
aS'412494'
p3745
aS'300055'
p3746
aS'400194'
p3747
aS'412320'
p3748
aS'412496'
p3749
aS'412582'
p3750
aS'412545'
p3751
aS'400222'
p3752
aS'412242'
p3753
aS'412495'
p3754
aS'412391'
p3755
aS'300071'
p3756
aS'300072'
p3757
aS'400272'
p3758
aS'412325'
p3759
aS'300073'
p3760
aS'400284'
p3761
aS'300075'
p3762
aS'412194'
p3763
aS'300076'
p3764
aS'300078'
p3765
aS'412492'
p3766
aS'400325'
p3767
aS'300080'
p3768
aS'300081'
p3769
aS'412322'
p3770
aS'300083'
p3771
aS'412491'
p3772
aS'300087'
p3773
aS'412471'
p3774
aS'300088'
p3775
aS'412323'
p3776
aS'300089'
p3777
aS'300093'
p3778
aS'400546'
p3779
aS'400408'
p3780
aS'400412'
p3781
aS'400418'
p3782
aS'412321'
p3783
aS'412542'
p3784
aS'412247'
p3785
aS'400432'
p3786
aS'300100'
p3787
aa(lp3788
S'300002'
p3789
aS'412493'
p3790
aS'400013'
p3791
aS'412251'
p3792
aS'300005'
p3793
aS'412326'
p3794
aS'412330'
p3795
aS'412490'
p3796
aS'400034'
p3797
aS'400040'
p3798
aS'300011'
p3799
aS'400050'
p3800
aS'300018'
p3801
aS'400064'
p3802
aS'300019'
p3803
aS'412246'
p3804
aS'300023'
p3805
aS'300025'
p3806
aS'412390'
p3807
aS'412248'
p3808
aS'300027'
p3809
aS'300030'
p3810
aS'412205'
p3811
aS'300038'
p3812
aS'300041'
p3813
aS'300043'
p3814
aS'412556'
p3815
aS'400134'
p3816
aS'412378'
p3817
aS'412223'
p3818
aS'300048'
p3819
aS'412324'
p3820
aS'300051'
p3821
aS'300052'
p3822
aS'412281'
p3823
aS'412554'
p3824
aS'412218'
p3825
aS'412200'
p3826
aS'412494'
p3827
aS'300055'
p3828
aS'400194'
p3829
aS'412320'
p3830
aS'300058'
p3831
aS'412582'
p3832
aS'300060'
p3833
aS'412545'
p3834
aS'400222'
p3835
aS'412242'
p3836
aS'300063'
p3837
aS'300064'
p3838
aS'300065'
p3839
aS'300066'
p3840
aS'412391'
p3841
aS'300071'
p3842
aS'412243'
p3843
aS'300072'
p3844
aS'400272'
p3845
aS'412325'
p3846
aS'300073'
p3847
aS'400284'
p3848
aS'300075'
p3849
aS'412194'
p3850
aS'300076'
p3851
aS'300078'
p3852
aS'400325'
p3853
aS'300080'
p3854
aS'300081'
p3855
aS'300082'
p3856
aS'412322'
p3857
aS'300083'
p3858
aS'300084'
p3859
aS'412507'
p3860
aS'300087'
p3861
aS'412323'
p3862
aS'300093'
p3863
aS'412244'
p3864
aS'400546'
p3865
aS'400408'
p3866
aS'400412'
p3867
aS'400413'
p3868
aS'400418'
p3869
aS'412321'
p3870
aS'412542'
p3871
aS'412247'
p3872
aS'400432'
p3873
aS'300100'
p3874
aa(lp3875
S'300002'
p3876
aS'412493'
p3877
aS'412251'
p3878
aS'400040'
p3879
aS'400054'
p3880
aS'300021'
p3881
aS'402675'
p3882
aS'400576'
p3883
aS'300023'
p3884
aS'412248'
p3885
aS'300027'
p3886
aS'300030'
p3887
aS'412573'
p3888
aS'300041'
p3889
aS'412556'
p3890
aS'300047'
p3891
aS'300048'
p3892
aS'300052'
p3893
aS'412218'
p3894
aS'412494'
p3895
aS'300055'
p3896
aS'400194'
p3897
aS'412320'
p3898
aS'412496'
p3899
aS'412495'
p3900
aS'412391'
p3901
aS'300072'
p3902
aS'400284'
p3903
aS'412492'
p3904
aS'400325'
p3905
aS'412322'
p3906
aS'300083'
p3907
aS'412491'
p3908
aS'412471'
p3909
aS'300089'
p3910
aS'400546'
p3911
aS'400408'
p3912
aS'400418'
p3913
aa(lp3914
S'300002'
p3915
aS'412493'
p3916
aS'412251'
p3917
aS'400034'
p3918
aS'400040'
p3919
aS'400054'
p3920
aS'300021'
p3921
aS'402675'
p3922
aS'400576'
p3923
aS'300023'
p3924
aS'300025'
p3925
aS'412248'
p3926
aS'300027'
p3927
aS'300030'
p3928
aS'412573'
p3929
aS'300041'
p3930
aS'412556'
p3931
aS'400134'
p3932
aS'300047'
p3933
aS'300048'
p3934
aS'300052'
p3935
aS'412218'
p3936
aS'412494'
p3937
aS'300055'
p3938
aS'400194'
p3939
aS'412320'
p3940
aS'412496'
p3941
aS'400222'
p3942
aS'412495'
p3943
aS'300071'
p3944
aS'300072'
p3945
aS'400284'
p3946
aS'300075'
p3947
aS'412492'
p3948
aS'400325'
p3949
aS'412322'
p3950
aS'300083'
p3951
aS'412491'
p3952
aS'412471'
p3953
aS'300088'
p3954
aS'300089'
p3955
aS'400546'
p3956
aS'400408'
p3957
aS'400418'
p3958
aS'400432'
p3959
aa(lp3960
S'300002'
p3961
aS'412493'
p3962
aS'412251'
p3963
aS'400034'
p3964
aS'400040'
p3965
aS'400054'
p3966
aS'300021'
p3967
aS'402675'
p3968
aS'400576'
p3969
aS'300023'
p3970
aS'412248'
p3971
aS'300027'
p3972
aS'300030'
p3973
aS'412573'
p3974
aS'300041'
p3975
aS'412556'
p3976
aS'400134'
p3977
aS'300047'
p3978
aS'300048'
p3979
aS'412324'
p3980
aS'300052'
p3981
aS'412218'
p3982
aS'412494'
p3983
aS'300055'
p3984
aS'400194'
p3985
aS'412320'
p3986
aS'412496'
p3987
aS'400222'
p3988
aS'412495'
p3989
aS'300071'
p3990
aS'412243'
p3991
aS'300072'
p3992
aS'400284'
p3993
aS'412492'
p3994
aS'400325'
p3995
aS'412322'
p3996
aS'300083'
p3997
aS'412491'
p3998
aS'412471'
p3999
aS'300088'
p4000
aS'300089'
p4001
aS'400546'
p4002
aS'400408'
p4003
aS'400418'
p4004
aS'400432'
p4005
aa(lp4006
S'300002'
p4007
aS'400013'
p4008
aS'412251'
p4009
aS'300005'
p4010
aS'412326'
p4011
aS'412330'
p4012
aS'412490'
p4013
aS'400034'
p4014
aS'400040'
p4015
aS'300011'
p4016
aS'400050'
p4017
aS'300018'
p4018
aS'400064'
p4019
aS'300019'
p4020
aS'412246'
p4021
aS'300021'
p4022
aS'402675'
p4023
aS'300023'
p4024
aS'300025'
p4025
aS'412390'
p4026
aS'412248'
p4027
aS'300027'
p4028
aS'412586'
p4029
aS'412205'
p4030
aS'300038'
p4031
aS'300043'
p4032
aS'412378'
p4033
aS'412223'
p4034
aS'412324'
p4035
aS'300051'
p4036
aS'300052'
p4037
aS'412281'
p4038
aS'412554'
p4039
aS'412200'
p4040
aS'412494'
p4041
aS'400194'
p4042
aS'412320'
p4043
aS'300058'
p4044
aS'412582'
p4045
aS'412545'
p4046
aS'412242'
p4047
aS'300063'
p4048
aS'300065'
p4049
aS'300066'
p4050
aS'412391'
p4051
aS'412243'
p4052
aS'300072'
p4053
aS'400272'
p4054
aS'412325'
p4055
aS'300073'
p4056
aS'300075'
p4057
aS'412194'
p4058
aS'300076'
p4059
aS'300078'
p4060
aS'300080'
p4061
aS'300081'
p4062
aS'300082'
p4063
aS'300084'
p4064
aS'400357'
p4065
aS'412507'
p4066
aS'300087'
p4067
aS'300088'
p4068
aS'412323'
p4069
aS'300089'
p4070
aS'300093'
p4071
aS'400546'
p4072
aS'400412'
p4073
aS'400413'
p4074
aS'412321'
p4075
aS'412542'
p4076
aS'412247'
p4077
aS'400432'
p4078
aS'300100'
p4079
aa(lp4080
S'300002'
p4081
aS'412493'
p4082
aS'412251'
p4083
aS'400034'
p4084
aS'400040'
p4085
aS'400054'
p4086
aS'300021'
p4087
aS'402675'
p4088
aS'400576'
p4089
aS'300023'
p4090
aS'300025'
p4091
aS'412248'
p4092
aS'300027'
p4093
aS'300030'
p4094
aS'412573'
p4095
aS'300041'
p4096
aS'412556'
p4097
aS'400134'
p4098
aS'300047'
p4099
aS'300048'
p4100
aS'300052'
p4101
aS'412218'
p4102
aS'412494'
p4103
aS'300055'
p4104
aS'400194'
p4105
aS'412320'
p4106
aS'412496'
p4107
aS'400222'
p4108
aS'412495'
p4109
aS'412391'
p4110
aS'300071'
p4111
aS'300072'
p4112
aS'400284'
p4113
aS'300075'
p4114
aS'412492'
p4115
aS'400325'
p4116
aS'412322'
p4117
aS'300083'
p4118
aS'412491'
p4119
aS'412471'
p4120
aS'300088'
p4121
aS'300089'
p4122
aS'400546'
p4123
aS'400408'
p4124
aS'400418'
p4125
aS'400432'
p4126
aa(lp4127
S'300002'
p4128
aS'412493'
p4129
aS'412251'
p4130
aS'300005'
p4131
aS'400034'
p4132
aS'400040'
p4133
aS'400054'
p4134
aS'300021'
p4135
aS'402675'
p4136
aS'400576'
p4137
aS'300023'
p4138
aS'300025'
p4139
aS'412248'
p4140
aS'300027'
p4141
aS'300030'
p4142
aS'412573'
p4143
aS'300041'
p4144
aS'412556'
p4145
aS'400134'
p4146
aS'300047'
p4147
aS'300052'
p4148
aS'412218'
p4149
aS'412494'
p4150
aS'300055'
p4151
aS'400194'
p4152
aS'412320'
p4153
aS'412496'
p4154
aS'412545'
p4155
aS'400222'
p4156
aS'412495'
p4157
aS'300071'
p4158
aS'300072'
p4159
aS'400284'
p4160
aS'412492'
p4161
aS'400325'
p4162
aS'412322'
p4163
aS'300083'
p4164
aS'412491'
p4165
aS'412471'
p4166
aS'300088'
p4167
aS'300089'
p4168
aS'400546'
p4169
aS'400408'
p4170
aS'400418'
p4171
aS'400432'
p4172
aa(lp4173
S'400013'
p4174
aS'300005'
p4175
aS'412326'
p4176
aS'412330'
p4177
aS'412490'
p4178
aS'300011'
p4179
aS'400050'
p4180
aS'300018'
p4181
aS'400064'
p4182
aS'300019'
p4183
aS'412246'
p4184
aS'300025'
p4185
aS'412390'
p4186
aS'412586'
p4187
aS'412205'
p4188
aS'300038'
p4189
aS'300043'
p4190
aS'412378'
p4191
aS'412223'
p4192
aS'412324'
p4193
aS'300051'
p4194
aS'412281'
p4195
aS'412554'
p4196
aS'412200'
p4197
aS'300058'
p4198
aS'412582'
p4199
aS'412545'
p4200
aS'400222'
p4201
aS'412242'
p4202
aS'300063'
p4203
aS'300065'
p4204
aS'300066'
p4205
aS'412243'
p4206
aS'400272'
p4207
aS'412325'
p4208
aS'300073'
p4209
aS'300075'
p4210
aS'412194'
p4211
aS'300076'
p4212
aS'300078'
p4213
aS'300080'
p4214
aS'300081'
p4215
aS'300082'
p4216
aS'300084'
p4217
aS'400357'
p4218
aS'412507'
p4219
aS'300087'
p4220
aS'412323'
p4221
aS'300093'
p4222
aS'412244'
p4223
aS'400412'
p4224
aS'400413'
p4225
aS'412321'
p4226
aS'412542'
p4227
aS'412247'
p4228
aS'300100'
p4229
aasS'L'
p4230
(lp4231
(lp4232
g741
ag724
ag699
ag681
ag165
ag552
ag448
ag420
ag330
ag272
ag269
ag243
ag190
aa(lp4233
g256
ag734
ag565
ag406
ag333
ag262
ag385
ag488
ag225
ag652
ag158
aa(lp4234
g215
aa(lp4235
asb.